Certificate:
    Data:
        Version: 3 (0x2)
        Serial Number: 5 (0x5)
        Signature Algorithm: sha512WithRSAEncryption
        Issuer: C=US, ST=CA, O=Open vSwitch, OU=switchca, CN=switchca CA Certificate
        Validity
            Not Before: Jan 11 10:32:25 2020 GMT
            Not After : Jan  8 10:32:25 2030 GMT
        Subject: C=US, ST=CA, O=Open vSwitch, OU=Open vSwitch Certifier, CN=ctrl2
        Subject Public Key Info:
            Public Key Algorithm: rsaEncryption
                RSA Public-Key: (4096 bit)
                Modulus:
                    00:ac:05:af:65:fd:5f:a5:bd:88:79:f1:b0:4e:7b:
                    bc:f2:6d:0c:f3:06:b9:bb:66:bb:34:33:04:1b:f4:
                    4f:e1:dd:70:aa:4a:4e:68:b6:28:d2:24:06:3b:ba:
                    0b:7a:71:e0:c6:22:ee:83:cb:18:4e:3d:22:b8:bd:
                    b4:da:e7:ff:4e:4c:e9:65:07:45:c4:9a:76:79:cc:
                    2d:39:f9:52:5d:6a:d9:ae:a5:1c:f5:02:53:e5:32:
                    e7:8a:fb:49:82:c2:0d:43:89:fe:ea:fa:98:96:18:
                    69:5a:fa:94:1f:34:8e:fe:e5:fc:16:a8:78:0e:77:
                    32:7f:3c:91:c4:3f:22:ef:8a:db:a6:e3:6b:93:ec:
                    62:91:bd:89:f2:28:4a:a3:96:77:22:40:4a:04:c4:
                    ce:47:27:67:8c:43:e5:a0:4a:f3:16:a1:40:4f:1f:
                    40:24:d5:49:22:5a:ba:d8:3c:f9:b8:b4:95:03:5d:
                    fd:fc:bd:1d:80:ec:0b:7b:d5:1c:d9:5c:21:c0:63:
                    61:02:a0:f4:a9:c5:39:bf:6c:d4:c3:56:1d:59:13:
                    64:f1:d9:cf:85:ea:32:dc:42:f4:a3:c8:e4:08:e9:
                    7b:ae:b6:b1:fe:d9:c5:df:46:8f:c3:5b:91:c5:e8:
                    0b:59:11:ba:67:4e:b9:79:c0:34:58:65:a7:3b:67:
                    1d:ae:92:80:29:c2:70:bf:78:7e:01:07:91:5b:31:
                    d1:5d:94:7a:ae:71:87:51:7a:cc:f1:5e:94:61:87:
                    d9:cc:91:b9:ad:05:d8:8f:ef:ab:dc:ae:f3:31:11:
                    60:dd:5f:fa:fe:03:90:4b:c7:a5:91:a6:c6:f5:c9:
                    29:c8:1d:31:fe:02:7d:56:1e:f5:c6:38:1b:11:97:
                    c0:d1:5e:bd:18:49:5f:11:cd:52:cd:f6:e7:47:33:
                    4b:c0:aa:57:da:4b:d5:95:65:8a:f5:a2:fb:d5:bb:
                    29:1d:58:89:b7:e9:8a:02:b3:ec:da:b9:99:08:30:
                    34:51:a0:c7:c1:4c:1d:2c:a2:dc:2c:56:e6:ea:78:
                    aa:9d:40:59:21:da:9d:ec:1c:14:4a:3d:34:23:5a:
                    9b:7d:d6:b8:bb:ce:a2:7b:78:63:b1:06:d7:13:c9:
                    c0:7d:9f:11:21:d7:e6:64:80:1f:83:f8:fe:a7:d4:
                    a3:a1:17:b7:de:27:ba:41:43:46:a7:1e:8a:c0:cb:
                    d7:81:a3:98:ce:73:67:83:6d:48:47:1b:77:da:ff:
                    b6:13:95:84:dc:95:a9:8a:42:50:6a:9c:06:f2:8a:
                    0c:cd:3d:35:00:e0:8b:65:ab:c5:a5:bf:32:8b:f7:
                    0f:c4:c8:2a:a9:1f:36:6a:9d:4d:63:d6:9a:46:5b:
                    2d:7a:d5
                Exponent: 65537 (0x10001)
        X509v3 extensions:
            X509v3 Basic Constraints: 
                CA:FALSE
            X509v3 Subject Alternative Name: 
                DNS:ctrl2
    Signature Algorithm: sha512WithRSAEncryption
         94:96:33:3f:4a:80:5d:a6:09:e0:46:ee:54:d4:9e:ed:f9:07:
         57:aa:14:61:02:17:c3:4b:50:27:87:43:10:94:2c:43:74:b3:
         65:5c:cd:0e:f3:f7:5e:bb:60:36:94:4b:fc:62:f9:16:44:9a:
         ea:12:7b:45:85:7b:df:b8:69:da:2b:89:57:39:df:af:64:5c:
         90:27:53:18:e2:96:68:e8:5c:fd:ec:fa:49:5a:91:1c:19:30:
         fb:1b:4e:f6:92:94:30:5a:5c:62:11:dd:23:68:35:ea:a2:41:
         49:3c:6b:6d:c4:1c:90:5d:9f:b3:24:21:c1:dd:41:01:92:5e:
         08:d8:c1:f0:6b:31:c8:6d:47:7e:e7:1b:26:97:6a:9f:a0:93:
         20:bc:2b:87:c2:64:c0:c7:1c:a8:c6:f1:8f:34:f2:7e:26:26:
         fe:f4:59:89:9c:46:93:be:8c:9d:86:08:40:df:09:ac:26:d7:
         63:6a:60:da:48:6a:89:42:93:12:6b:64:10:31:24:c0:3a:13:
         2a:32:02:ec:93:c0:4f:64:26:5e:6e:6f:88:d8:9a:38:9e:2d:
         5e:f9:c6:ee:8d:54:ba:48:a4:d9:67:47:5c:ff:b9:66:81:e2:
         8a:03:b7:53:1d:de:12:eb:26:95:95:25:c3:f5:47:6b:15:cb:
         f3:96:2a:4b:75:ca:29:62:9e:8b:fd:54:07:00:2b:22:d9:7c:
         60:c6:7f:0c:85:46:bd:97:24:91:b7:5e:21:b9:0c:e8:aa:96:
         6e:61:aa:45:b7:fd:81:7b:57:ae:5c:f0:c3:58:a6:77:e4:5c:
         80:05:38:3d:af:45:71:7f:df:32:42:93:d7:6b:72:34:49:f0:
         88:b7:d5:23:5d:46:0e:53:a4:87:bb:d2:6e:cc:50:26:df:56:
         fb:06:ed:45:e8:0b:42:da:a2:90:f8:78:67:3c:f6:e5:c4:59:
         63:13:37:39:20:42:35:0c:04:8f:a0:81:3a:f4:95:15:51:4d:
         69:79:93:a7:f7:88:14:b3:68:ef:2d:9b:ca:8a:d6:08:40:3b:
         ec:32:48:1d:4c:12:a0:91:31:d8:3b:0f:9b:4a:ea:cf:d5:0c:
         09:37:a0:bb:f8:45:85:4f:4e:8b:51:c9:da:b3:2f:2c:17:45:
         2d:1a:c3:a5:fc:64:a1:b1:b2:48:c3:8d:80:4d:9f:01:55:63:
         7e:e2:9e:ff:fd:72:1a:fe:a5:0f:a6:20:92:7f:a8:a8:ac:c8:
         a7:ef:5a:25:7e:81:79:5a:ed:d9:48:1b:cf:ae:5f:04:a7:c3:
         cc:5e:b5:62:97:3f:16:4b:37:ac:65:bd:ad:95:01:e9:3a:08:
         ff:63:ef:06:f4:00:b0:f4
-----BEGIN CERTIFICATE-----
MIIFYjCCA0qgAwIBAgIBBTANBgkqhkiG9w0BAQ0FADBmMQswCQYDVQQGEwJVUzEL
MAkGA1UECAwCQ0ExFTATBgNVBAoMDE9wZW4gdlN3aXRjaDERMA8GA1UECwwIc3dp
dGNoY2ExIDAeBgNVBAMMF3N3aXRjaGNhIENBIENlcnRpZmljYXRlMB4XDTIwMDEx
MTEwMzIyNVoXDTMwMDEwODEwMzIyNVowYjELMAkGA1UEBhMCVVMxCzAJBgNVBAgM
AkNBMRUwEwYDVQQKDAxPcGVuIHZTd2l0Y2gxHzAdBgNVBAsMFk9wZW4gdlN3aXRj
aCBDZXJ0aWZpZXIxDjAMBgNVBAMMBWN0cmwyMIICIjANBgkqhkiG9w0BAQEFAAOC
Ag8AMIICCgKCAgEArAWvZf1fpb2IefGwTnu88m0M8wa5u2a7NDMEG/RP4d1wqkpO
aLYo0iQGO7oLenHgxiLug8sYTj0iuL202uf/TkzpZQdFxJp2ecwtOflSXWrZrqUc
9QJT5TLnivtJgsINQ4n+6vqYlhhpWvqUHzSO/uX8Fqh4DncyfzyRxD8i74rbpuNr
k+xikb2J8ihKo5Z3IkBKBMTORydnjEPloErzFqFATx9AJNVJIlq62Dz5uLSVA139
/L0dgOwLe9Uc2VwhwGNhAqD0qcU5v2zUw1YdWRNk8dnPheoy3EL0o8jkCOl7rrax
/tnF30aPw1uRxegLWRG6Z065ecA0WGWnO2cdrpKAKcJwv3h+AQeRWzHRXZR6rnGH
UXrM8V6UYYfZzJG5rQXYj++r3K7zMRFg3V/6/gOQS8elkabG9ckpyB0x/gJ9Vh71
xjgbEZfA0V69GElfEc1SzfbnRzNLwKpX2kvVlWWK9aL71bspHViJt+mKArPs2rmZ
CDA0UaDHwUwdLKLcLFbm6niqnUBZIdqd7BwUSj00I1qbfda4u86ie3hjsQbXE8nA
fZ8RIdfmZIAfg/j+p9SjoRe33ie6QUNGpx6KwMvXgaOYznNng21IRxt32v+2E5WE
3JWpikJQapwG8ooMzT01AOCLZavFpb8yi/cPxMgqqR82ap1NY9aaRlstetUCAwEA
AaMfMB0wCQYDVR0TBAIwADAQBgNVHREECTAHggVjdHJsMjANBgkqhkiG9w0BAQ0F
AAOCAgEAlJYzP0qAXaYJ4EbuVNSe7fkHV6oUYQIXw0tQJ4dDEJQsQ3SzZVzNDvP3
XrtgNpRL/GL5FkSa6hJ7RYV737hp2iuJVznfr2RckCdTGOKWaOhc/ez6SVqRHBkw
+xtO9pKUMFpcYhHdI2g16qJBSTxrbcQckF2fsyQhwd1BAZJeCNjB8GsxyG1Hfucb
Jpdqn6CTILwrh8JkwMccqMbxjzTyfiYm/vRZiZxGk76MnYYIQN8JrCbXY2pg2khq
iUKTEmtkEDEkwDoTKjIC7JPAT2QmXm5viNiaOJ4tXvnG7o1Uukik2WdHXP+5ZoHi
igO3Ux3eEusmlZUlw/VHaxXL85YqS3XKKWKei/1UBwArItl8YMZ/DIVGvZckkbde
IbkM6KqWbmGqRbf9gXtXrlzww1imd+RcgAU4Pa9FcX/fMkKT12tyNEnwiLfVI11G
DlOkh7vSbsxQJt9W+wbtRegLQtqikPh4Zzz25cRZYxM3OSBCNQwEj6CBOvSVFVFN
aXmTp/eIFLNo7y2byorWCEA77DJIHUwSoJEx2DsPm0rqz9UMCTegu/hFhU9Oi1HJ
2rMvLBdFLRrDpfxkobGySMONgE2fAVVjfuKe//1yGv6lD6Ygkn+oqKzIp+9aJX6B
eVrt2Ugbz65fBKfDzF61Ypc/Fks3rGW9rZUB6ToI/2PvBvQAsPQ=
-----END CERTIFICATE-----
