Certificate Request:
    Data:
        Version: 1 (0x0)
        Subject: C = US, ST = CA, L = Palo Alto, O = Open vSwitch, OU = Open vSwitch Certifier, CN = ctrl2
        Subject Public Key Info:
            Public Key Algorithm: rsaEncryption
                RSA Public-Key: (4096 bit)
                Modulus:
                    00:ac:05:af:65:fd:5f:a5:bd:88:79:f1:b0:4e:7b:
                    bc:f2:6d:0c:f3:06:b9:bb:66:bb:34:33:04:1b:f4:
                    4f:e1:dd:70:aa:4a:4e:68:b6:28:d2:24:06:3b:ba:
                    0b:7a:71:e0:c6:22:ee:83:cb:18:4e:3d:22:b8:bd:
                    b4:da:e7:ff:4e:4c:e9:65:07:45:c4:9a:76:79:cc:
                    2d:39:f9:52:5d:6a:d9:ae:a5:1c:f5:02:53:e5:32:
                    e7:8a:fb:49:82:c2:0d:43:89:fe:ea:fa:98:96:18:
                    69:5a:fa:94:1f:34:8e:fe:e5:fc:16:a8:78:0e:77:
                    32:7f:3c:91:c4:3f:22:ef:8a:db:a6:e3:6b:93:ec:
                    62:91:bd:89:f2:28:4a:a3:96:77:22:40:4a:04:c4:
                    ce:47:27:67:8c:43:e5:a0:4a:f3:16:a1:40:4f:1f:
                    40:24:d5:49:22:5a:ba:d8:3c:f9:b8:b4:95:03:5d:
                    fd:fc:bd:1d:80:ec:0b:7b:d5:1c:d9:5c:21:c0:63:
                    61:02:a0:f4:a9:c5:39:bf:6c:d4:c3:56:1d:59:13:
                    64:f1:d9:cf:85:ea:32:dc:42:f4:a3:c8:e4:08:e9:
                    7b:ae:b6:b1:fe:d9:c5:df:46:8f:c3:5b:91:c5:e8:
                    0b:59:11:ba:67:4e:b9:79:c0:34:58:65:a7:3b:67:
                    1d:ae:92:80:29:c2:70:bf:78:7e:01:07:91:5b:31:
                    d1:5d:94:7a:ae:71:87:51:7a:cc:f1:5e:94:61:87:
                    d9:cc:91:b9:ad:05:d8:8f:ef:ab:dc:ae:f3:31:11:
                    60:dd:5f:fa:fe:03:90:4b:c7:a5:91:a6:c6:f5:c9:
                    29:c8:1d:31:fe:02:7d:56:1e:f5:c6:38:1b:11:97:
                    c0:d1:5e:bd:18:49:5f:11:cd:52:cd:f6:e7:47:33:
                    4b:c0:aa:57:da:4b:d5:95:65:8a:f5:a2:fb:d5:bb:
                    29:1d:58:89:b7:e9:8a:02:b3:ec:da:b9:99:08:30:
                    34:51:a0:c7:c1:4c:1d:2c:a2:dc:2c:56:e6:ea:78:
                    aa:9d:40:59:21:da:9d:ec:1c:14:4a:3d:34:23:5a:
                    9b:7d:d6:b8:bb:ce:a2:7b:78:63:b1:06:d7:13:c9:
                    c0:7d:9f:11:21:d7:e6:64:80:1f:83:f8:fe:a7:d4:
                    a3:a1:17:b7:de:27:ba:41:43:46:a7:1e:8a:c0:cb:
                    d7:81:a3:98:ce:73:67:83:6d:48:47:1b:77:da:ff:
                    b6:13:95:84:dc:95:a9:8a:42:50:6a:9c:06:f2:8a:
                    0c:cd:3d:35:00:e0:8b:65:ab:c5:a5:bf:32:8b:f7:
                    0f:c4:c8:2a:a9:1f:36:6a:9d:4d:63:d6:9a:46:5b:
                    2d:7a:d5
                Exponent: 65537 (0x10001)
        Attributes:
        Requested Extensions:
            X509v3 Subject Alternative Name: 
                DNS:ctrl2
    Signature Algorithm: sha256WithRSAEncryption
         6f:bd:74:b5:69:a0:b6:db:42:cc:08:cf:4b:78:06:4c:0e:7e:
         6e:11:d4:bf:5e:fe:0e:3a:11:a4:b9:39:61:d5:d5:35:07:ae:
         58:ef:f7:92:8c:ed:81:d5:d0:4e:be:7f:2a:86:3f:20:14:57:
         a2:0b:e7:02:3d:46:cc:ff:f2:ab:0f:c7:b5:4d:52:b2:58:5a:
         fe:3f:f3:8c:cf:7e:b2:85:00:12:4b:13:31:78:38:2b:92:68:
         e9:2c:fd:3a:b3:f9:a5:a2:b9:3b:e2:0a:46:ae:2e:eb:62:0f:
         b1:95:de:d2:94:f8:45:50:da:55:bb:88:9c:cc:99:92:41:24:
         30:3c:4f:75:9d:3f:5a:f5:05:c7:3b:17:09:c4:8c:63:9c:dd:
         4e:3c:ec:34:af:03:e9:91:65:aa:2e:2d:d0:6c:6b:03:41:16:
         3f:2f:96:37:3e:1d:34:a0:32:3b:85:33:fd:96:9d:ca:66:86:
         a8:02:32:24:ad:d4:37:47:94:e0:88:87:28:b4:9e:23:3c:e0:
         27:39:c0:84:31:f9:2a:53:16:2a:ad:fa:5f:23:14:c4:b4:b9:
         53:be:68:a7:57:fa:80:c8:55:8a:19:c6:d4:47:de:38:e9:ad:
         ff:8b:cd:7d:a1:17:f1:0a:21:c8:d2:c4:c8:8b:3a:57:3f:08:
         69:14:aa:2d:4f:76:0a:2b:c5:06:85:2b:b0:c6:d3:ac:5c:9b:
         78:c3:5f:16:75:eb:29:97:7d:88:67:3b:b1:04:f8:83:48:b5:
         7e:1c:b5:30:0d:2d:f9:ca:3a:1e:cb:a5:9c:2d:a5:47:6d:82:
         18:5b:e5:09:11:1c:92:38:cc:eb:42:09:9d:e2:36:34:a9:d2:
         75:75:c0:d3:37:d8:c7:25:61:c8:45:70:23:6a:83:6c:f7:40:
         b8:ec:b7:51:7b:2a:a7:a0:3d:9e:99:69:04:72:27:0d:89:14:
         b5:1b:73:96:dd:57:c6:84:08:83:83:b0:0b:87:99:82:4e:a3:
         65:be:08:52:47:43:49:fc:d6:3f:49:4c:d0:38:f9:2e:67:f9:
         26:22:63:8f:23:40:89:b5:d2:8b:87:f8:97:c4:f3:15:a9:4f:
         65:f4:83:0c:a6:ff:48:d8:64:13:23:f1:3c:ea:b9:20:d1:37:
         e2:c9:6f:00:86:18:c7:93:bb:77:bf:ac:a8:d1:65:7a:fa:73:
         ef:7b:5e:da:b6:44:04:fb:0c:60:5b:af:94:9f:ce:f7:06:a0:
         56:b2:4e:2a:c2:a4:23:3c:79:c6:fc:db:99:67:c2:25:af:02:
         75:2f:fc:9e:41:32:bf:12:e5:d4:a0:5b:ec:95:29:17:03:b7:
         98:50:8d:71:0a:52:22:b8
-----BEGIN CERTIFICATE REQUEST-----
MIIE3jCCAsYCAQAwdjELMAkGA1UEBhMCVVMxCzAJBgNVBAgMAkNBMRIwEAYDVQQH
DAlQYWxvIEFsdG8xFTATBgNVBAoMDE9wZW4gdlN3aXRjaDEfMB0GA1UECwwWT3Bl
biB2U3dpdGNoIENlcnRpZmllcjEOMAwGA1UEAwwFY3RybDIwggIiMA0GCSqGSIb3
DQEBAQUAA4ICDwAwggIKAoICAQCsBa9l/V+lvYh58bBOe7zybQzzBrm7Zrs0MwQb
9E/h3XCqSk5otijSJAY7ugt6ceDGIu6DyxhOPSK4vbTa5/9OTOllB0XEmnZ5zC05
+VJdatmupRz1AlPlMueK+0mCwg1Dif7q+piWGGla+pQfNI7+5fwWqHgOdzJ/PJHE
PyLvitum42uT7GKRvYnyKEqjlnciQEoExM5HJ2eMQ+WgSvMWoUBPH0Ak1UkiWrrY
PPm4tJUDXf38vR2A7At71RzZXCHAY2ECoPSpxTm/bNTDVh1ZE2Tx2c+F6jLcQvSj
yOQI6XuutrH+2cXfRo/DW5HF6AtZEbpnTrl5wDRYZac7Zx2ukoApwnC/eH4BB5Fb
MdFdlHqucYdReszxXpRhh9nMkbmtBdiP76vcrvMxEWDdX/r+A5BLx6WRpsb1ySnI
HTH+An1WHvXGOBsRl8DRXr0YSV8RzVLN9udHM0vAqlfaS9WVZYr1ovvVuykdWIm3
6YoCs+zauZkIMDRRoMfBTB0sotwsVubqeKqdQFkh2p3sHBRKPTQjWpt91ri7zqJ7
eGOxBtcTycB9nxEh1+ZkgB+D+P6n1KOhF7feJ7pBQ0anHorAy9eBo5jOc2eDbUhH
G3fa/7YTlYTclamKQlBqnAbyigzNPTUA4Itlq8WlvzKL9w/EyCqpHzZqnU1j1ppG
Wy161QIDAQABoCMwIQYJKoZIhvcNAQkOMRQwEjAQBgNVHREECTAHggVjdHJsMjAN
BgkqhkiG9w0BAQsFAAOCAgEAb710tWmgtttCzAjPS3gGTA5+bhHUv17+DjoRpLk5
YdXVNQeuWO/3koztgdXQTr5/KoY/IBRXogvnAj1GzP/yqw/HtU1Sslha/j/zjM9+
soUAEksTMXg4K5Jo6Sz9OrP5paK5O+IKRq4u62IPsZXe0pT4RVDaVbuInMyZkkEk
MDxPdZ0/WvUFxzsXCcSMY5zdTjzsNK8D6ZFlqi4t0GxrA0EWPy+WNz4dNKAyO4Uz
/ZadymaGqAIyJK3UN0eU4IiHKLSeIzzgJznAhDH5KlMWKq36XyMUxLS5U75op1f6
gMhVihnG1EfeOOmt/4vNfaEX8QohyNLEyIs6Vz8IaRSqLU92CivFBoUrsMbTrFyb
eMNfFnXrKZd9iGc7sQT4g0i1fhy1MA0t+co6HsulnC2lR22CGFvlCREckjjM60IJ
neI2NKnSdXXA0zfYxyVhyEVwI2qDbPdAuOy3UXsqp6A9nplpBHInDYkUtRtzlt1X
xoQIg4OwC4eZgk6jZb4IUkdDSfzWP0lM0Dj5Lmf5JiJjjyNAibXSi4f4l8TzFalP
ZfSDDKb/SNhkEyPxPOq5INE34slvAIYYx5O7d7+sqNFlevpz73te2rZEBPsMYFuv
lJ/O9wagVrJOKsKkIzx5xvzbmWfCJa8CdS/8nkEyvxLl1KBb7JUpFwO3mFCNcQpS
Irg=
-----END CERTIFICATE REQUEST-----
