Certificate Request:
    Data:
        Version: 1 (0x0)
        Subject: C = US, ST = CA, L = Palo Alto, O = Open vSwitch, OU = Open vSwitch Certifier, CN = sw1
        Subject Public Key Info:
            Public Key Algorithm: rsaEncryption
                RSA Public-Key: (4096 bit)
                Modulus:
                    00:ba:d7:dd:e5:53:54:45:cb:9d:a8:ec:e4:22:51:
                    75:26:3b:66:3e:db:0e:ef:a7:d0:52:d1:69:43:81:
                    df:79:33:14:99:fe:c4:46:0d:3a:4d:33:4b:66:b6:
                    81:26:e0:cf:67:06:60:7a:05:54:86:ba:1d:28:4a:
                    3a:93:2b:3e:b9:05:68:83:7f:e9:8d:c5:61:b4:29:
                    cb:35:fe:81:10:ff:40:1b:6f:63:65:d0:11:01:9d:
                    5e:4e:5e:1a:1c:2c:35:fb:0a:c2:9e:59:96:e3:ed:
                    97:d7:ec:69:ee:6b:70:d2:8f:79:01:be:f3:f3:a8:
                    1f:29:18:d7:c2:bd:fe:5a:de:8e:6b:d8:23:cf:b0:
                    fe:5b:23:a6:6c:6f:88:3b:02:d2:57:78:44:6e:f4:
                    5f:d5:12:cf:01:f5:e5:8d:91:9c:53:a1:49:c7:6b:
                    bb:10:84:fb:57:ab:2d:22:bf:0e:21:76:b9:4d:8b:
                    72:ac:8e:4c:45:9d:3c:6c:42:cd:32:8c:f1:3c:89:
                    aa:46:99:b5:d1:c3:27:70:d4:3b:16:90:59:67:8f:
                    e3:55:21:f1:e5:2a:be:6d:3a:56:4d:40:be:d6:c9:
                    d3:1a:7e:73:47:61:d4:39:e2:88:1c:f6:e3:68:cd:
                    57:6b:80:9c:1e:76:62:cb:4c:0a:44:63:bb:ae:cb:
                    4d:04:56:c4:15:c4:43:17:74:e6:c8:1d:da:78:41:
                    56:d5:68:c3:9d:e5:87:d5:90:1f:94:bb:03:0f:ce:
                    b4:84:54:ba:01:27:a6:6d:cb:cc:f3:23:98:3b:8d:
                    0d:71:0e:ac:93:44:50:e8:35:07:8b:1a:da:d8:7d:
                    76:9f:f7:f7:a8:fe:a0:9b:96:8c:9b:71:42:70:cd:
                    7b:d2:23:a9:78:1f:32:5d:87:7c:71:dc:bd:3e:10:
                    14:6f:8e:9c:ea:17:77:a9:ff:2f:53:69:fc:18:c1:
                    e8:98:d6:a5:de:b8:61:c4:40:05:d1:e2:aa:b0:a8:
                    2c:4c:b1:0e:12:83:0c:8b:e1:c0:b6:04:a3:96:2e:
                    60:53:88:9d:a9:c8:03:c5:47:c7:83:f9:83:68:e6:
                    7d:3a:3b:d1:62:38:a3:46:34:64:dc:0e:50:02:16:
                    0d:5c:67:6f:fd:dd:34:0b:ee:1b:d1:4a:67:48:78:
                    b1:8c:a1:e6:43:51:6b:00:59:83:6c:85:fc:6d:92:
                    5e:a8:75:f8:1f:8d:b7:4c:4d:57:f5:a3:b7:47:c0:
                    5f:c9:04:f4:5e:24:18:7c:e1:d4:2b:82:cf:ca:c0:
                    20:be:4f:af:9a:66:dd:b1:82:49:b3:84:58:20:f0:
                    15:a8:21:b2:94:ec:e9:58:81:e3:d2:38:27:87:6a:
                    d4:a4:1b
                Exponent: 65537 (0x10001)
        Attributes:
        Requested Extensions:
            X509v3 Subject Alternative Name: 
                DNS:sw1
    Signature Algorithm: sha256WithRSAEncryption
         a1:41:fa:1f:3c:6a:30:30:75:9c:35:c8:f6:a8:83:09:fb:df:
         46:e2:0b:39:dc:bd:d7:79:23:2c:9f:e7:f8:9a:e8:ed:78:d3:
         db:f0:95:92:0c:c9:14:a9:07:17:c0:f6:ce:8d:55:89:69:b8:
         da:37:0f:2b:97:44:70:61:d3:27:a2:ed:36:43:3d:57:6d:76:
         d9:83:58:ef:cf:f7:a4:64:39:df:f1:88:84:24:65:41:bc:0e:
         dd:4c:55:2c:0e:57:82:1b:6a:06:0a:38:fe:58:56:16:70:60:
         c8:58:2c:ba:fd:85:a0:3f:ca:95:43:c1:3e:8b:fc:e4:e5:f4:
         ee:05:cb:d4:25:b5:cd:7d:df:05:8e:1a:47:6d:0f:87:c5:09:
         ac:ea:bc:ff:06:b1:ea:c2:b0:34:d7:a4:49:56:32:ec:21:67:
         47:b2:12:2d:f1:7b:6a:b0:5d:3a:20:54:dc:a2:8f:7e:fa:b0:
         c7:ba:dd:98:c0:c0:67:e7:58:26:f6:be:21:70:3c:c0:cb:9e:
         9b:b1:f6:b3:ba:85:64:63:de:f0:01:df:bf:f9:09:61:93:4a:
         6f:9f:8e:63:d6:86:3f:4d:87:2b:ce:c6:25:23:9c:f9:33:9a:
         41:47:1b:cc:fe:37:1b:ac:f9:37:23:ce:65:cb:35:37:50:2b:
         2b:3d:66:60:cd:c4:db:20:2e:a3:02:69:e9:e9:72:5e:78:0f:
         8a:ec:92:f3:62:0e:2a:b4:2c:e2:4d:96:4d:c7:b8:17:ef:c4:
         d7:81:f7:7b:95:42:ca:e8:81:d4:e2:f8:69:4c:72:c6:b3:df:
         ba:48:3b:e8:5e:c7:8a:52:e8:a1:df:de:fa:96:e3:f3:53:a3:
         a8:cb:65:e5:ee:bc:5c:b2:ff:23:b7:ec:27:9d:82:88:52:16:
         82:0b:e8:46:7f:8e:32:5d:d1:e7:a5:8f:1c:08:7d:b1:6d:6b:
         0c:37:51:ca:9b:55:66:fb:33:02:28:8a:f2:51:15:41:d0:26:
         5f:a0:4d:02:dc:58:e0:8f:3a:50:da:8a:42:e6:40:cf:c0:0c:
         d6:a9:e0:8b:e7:dc:9a:30:73:e7:7c:e1:1a:61:e2:11:48:3f:
         d0:50:d7:db:d8:f0:18:75:00:5a:a5:68:a0:df:12:b5:d0:b9:
         13:25:67:97:79:d7:26:2b:49:3b:14:b9:d0:45:df:cb:6c:c4:
         7e:7c:8c:c8:57:f7:dc:aa:a6:ef:86:c0:10:a3:c4:3b:ce:2d:
         f6:83:31:ae:fc:35:a2:4b:a6:7f:6f:78:1f:2f:d0:8e:06:17:
         89:78:66:01:33:c4:0d:82:3a:b0:e7:96:26:36:bf:2b:53:eb:
         24:31:ee:b2:24:51:ac:e2
-----BEGIN CERTIFICATE REQUEST-----
MIIE2jCCAsICAQAwdDELMAkGA1UEBhMCVVMxCzAJBgNVBAgMAkNBMRIwEAYDVQQH
DAlQYWxvIEFsdG8xFTATBgNVBAoMDE9wZW4gdlN3aXRjaDEfMB0GA1UECwwWT3Bl
biB2U3dpdGNoIENlcnRpZmllcjEMMAoGA1UEAwwDc3cxMIICIjANBgkqhkiG9w0B
AQEFAAOCAg8AMIICCgKCAgEAutfd5VNURcudqOzkIlF1JjtmPtsO76fQUtFpQ4Hf
eTMUmf7ERg06TTNLZraBJuDPZwZgegVUhrodKEo6kys+uQVog3/pjcVhtCnLNf6B
EP9AG29jZdARAZ1eTl4aHCw1+wrCnlmW4+2X1+xp7mtw0o95Ab7z86gfKRjXwr3+
Wt6Oa9gjz7D+WyOmbG+IOwLSV3hEbvRf1RLPAfXljZGcU6FJx2u7EIT7V6stIr8O
IXa5TYtyrI5MRZ08bELNMozxPImqRpm10cMncNQ7FpBZZ4/jVSHx5Sq+bTpWTUC+
1snTGn5zR2HUOeKIHPbjaM1Xa4CcHnZiy0wKRGO7rstNBFbEFcRDF3TmyB3aeEFW
1WjDneWH1ZAflLsDD860hFS6ASembcvM8yOYO40NcQ6sk0RQ6DUHixra2H12n/f3
qP6gm5aMm3FCcM170iOpeB8yXYd8cdy9PhAUb46c6hd3qf8vU2n8GMHomNal3rhh
xEAF0eKqsKgsTLEOEoMMi+HAtgSjli5gU4idqcgDxUfHg/mDaOZ9OjvRYjijRjRk
3A5QAhYNXGdv/d00C+4b0UpnSHixjKHmQ1FrAFmDbIX8bZJeqHX4H423TE1X9aO3
R8BfyQT0XiQYfOHUK4LPysAgvk+vmmbdsYJJs4RYIPAVqCGylOzpWIHj0jgnh2rU
pBsCAwEAAaAhMB8GCSqGSIb3DQEJDjESMBAwDgYDVR0RBAcwBYIDc3cxMA0GCSqG
SIb3DQEBCwUAA4ICAQChQfofPGowMHWcNcj2qIMJ+99G4gs53L3XeSMsn+f4mujt
eNPb8JWSDMkUqQcXwPbOjVWJabjaNw8rl0RwYdMnou02Qz1XbXbZg1jvz/ekZDnf
8YiEJGVBvA7dTFUsDleCG2oGCjj+WFYWcGDIWCy6/YWgP8qVQ8E+i/zk5fTuBcvU
JbXNfd8FjhpHbQ+HxQms6rz/BrHqwrA016RJVjLsIWdHshIt8XtqsF06IFTcoo9+
+rDHut2YwMBn51gm9r4hcDzAy56bsfazuoVkY97wAd+/+Qlhk0pvn45j1oY/TYcr
zsYlI5z5M5pBRxvM/jcbrPk3I85lyzU3UCsrPWZgzcTbIC6jAmnp6XJeeA+K7JLz
Yg4qtCziTZZNx7gX78TXgfd7lULK6IHU4vhpTHLGs9+6SDvoXseKUuih3976luPz
U6Ooy2Xl7rxcsv8jt+wnnYKIUhaCC+hGf44yXdHnpY8cCH2xbWsMN1HKm1Vm+zMC
KIryURVB0CZfoE0C3FjgjzpQ2opC5kDPwAzWqeCL59yaMHPnfOEaYeIRSD/QUNfb
2PAYdQBapWig3xK10LkTJWeXedcmK0k7FLnQRd/LbMR+fIzIV/fcqqbvhsAQo8Q7
zi32gzGu/DWiS6Z/b3gfL9COBheJeGYBM8QNgjqw55YmNr8rU+skMe6yJFGs4g==
-----END CERTIFICATE REQUEST-----
