Certificate:
    Data:
        Version: 3 (0x2)
        Serial Number: 3 (0x3)
        Signature Algorithm: sha512WithRSAEncryption
        Issuer: C=US, ST=CA, O=Open vSwitch, OU=switchca, CN=switchca CA Certificate
        Validity
            Not Before: Jan  5 08:27:44 2020 GMT
            Not After : Jan  2 08:27:44 2030 GMT
        Subject: C=US, ST=CA, O=Open vSwitch, OU=Open vSwitch Certifier, CN=sw1
        Subject Public Key Info:
            Public Key Algorithm: rsaEncryption
                RSA Public-Key: (4096 bit)
                Modulus:
                    00:ba:d7:dd:e5:53:54:45:cb:9d:a8:ec:e4:22:51:
                    75:26:3b:66:3e:db:0e:ef:a7:d0:52:d1:69:43:81:
                    df:79:33:14:99:fe:c4:46:0d:3a:4d:33:4b:66:b6:
                    81:26:e0:cf:67:06:60:7a:05:54:86:ba:1d:28:4a:
                    3a:93:2b:3e:b9:05:68:83:7f:e9:8d:c5:61:b4:29:
                    cb:35:fe:81:10:ff:40:1b:6f:63:65:d0:11:01:9d:
                    5e:4e:5e:1a:1c:2c:35:fb:0a:c2:9e:59:96:e3:ed:
                    97:d7:ec:69:ee:6b:70:d2:8f:79:01:be:f3:f3:a8:
                    1f:29:18:d7:c2:bd:fe:5a:de:8e:6b:d8:23:cf:b0:
                    fe:5b:23:a6:6c:6f:88:3b:02:d2:57:78:44:6e:f4:
                    5f:d5:12:cf:01:f5:e5:8d:91:9c:53:a1:49:c7:6b:
                    bb:10:84:fb:57:ab:2d:22:bf:0e:21:76:b9:4d:8b:
                    72:ac:8e:4c:45:9d:3c:6c:42:cd:32:8c:f1:3c:89:
                    aa:46:99:b5:d1:c3:27:70:d4:3b:16:90:59:67:8f:
                    e3:55:21:f1:e5:2a:be:6d:3a:56:4d:40:be:d6:c9:
                    d3:1a:7e:73:47:61:d4:39:e2:88:1c:f6:e3:68:cd:
                    57:6b:80:9c:1e:76:62:cb:4c:0a:44:63:bb:ae:cb:
                    4d:04:56:c4:15:c4:43:17:74:e6:c8:1d:da:78:41:
                    56:d5:68:c3:9d:e5:87:d5:90:1f:94:bb:03:0f:ce:
                    b4:84:54:ba:01:27:a6:6d:cb:cc:f3:23:98:3b:8d:
                    0d:71:0e:ac:93:44:50:e8:35:07:8b:1a:da:d8:7d:
                    76:9f:f7:f7:a8:fe:a0:9b:96:8c:9b:71:42:70:cd:
                    7b:d2:23:a9:78:1f:32:5d:87:7c:71:dc:bd:3e:10:
                    14:6f:8e:9c:ea:17:77:a9:ff:2f:53:69:fc:18:c1:
                    e8:98:d6:a5:de:b8:61:c4:40:05:d1:e2:aa:b0:a8:
                    2c:4c:b1:0e:12:83:0c:8b:e1:c0:b6:04:a3:96:2e:
                    60:53:88:9d:a9:c8:03:c5:47:c7:83:f9:83:68:e6:
                    7d:3a:3b:d1:62:38:a3:46:34:64:dc:0e:50:02:16:
                    0d:5c:67:6f:fd:dd:34:0b:ee:1b:d1:4a:67:48:78:
                    b1:8c:a1:e6:43:51:6b:00:59:83:6c:85:fc:6d:92:
                    5e:a8:75:f8:1f:8d:b7:4c:4d:57:f5:a3:b7:47:c0:
                    5f:c9:04:f4:5e:24:18:7c:e1:d4:2b:82:cf:ca:c0:
                    20:be:4f:af:9a:66:dd:b1:82:49:b3:84:58:20:f0:
                    15:a8:21:b2:94:ec:e9:58:81:e3:d2:38:27:87:6a:
                    d4:a4:1b
                Exponent: 65537 (0x10001)
        X509v3 extensions:
            X509v3 Basic Constraints: 
                CA:FALSE
            X509v3 Subject Alternative Name: 
                DNS:sw1
    Signature Algorithm: sha512WithRSAEncryption
         32:fa:5a:61:5a:72:2b:59:65:0e:dd:9c:68:d6:1d:11:53:35:
         8f:04:74:b5:89:70:8f:e5:39:f3:44:43:dc:9a:81:5d:91:22:
         01:58:bb:b3:49:eb:b5:40:fc:07:2d:03:27:19:9e:a3:93:68:
         97:94:15:a6:85:03:fb:be:be:e4:d1:f6:d2:32:4a:51:08:d9:
         95:e5:32:72:77:8f:e9:d2:11:9a:e3:7b:a3:64:4c:1c:43:e5:
         6c:b1:23:70:aa:dd:24:36:22:34:50:06:4c:b3:3a:bb:d5:ab:
         ad:6c:10:ca:d6:d8:bc:ca:5f:37:98:b5:87:01:75:a0:0d:86:
         8d:28:d5:f6:94:e9:97:44:75:44:d1:2e:f4:b9:84:0c:20:e9:
         d1:3f:8a:2c:8b:62:ee:c8:cd:1a:b6:b3:a9:3f:a8:78:9e:42:
         e5:26:1e:fa:fd:4a:e0:4f:8a:22:7b:70:d1:30:29:3a:5b:bf:
         e7:a2:5f:0d:2c:01:43:5c:27:ee:c2:a9:dd:07:d6:6e:4f:d5:
         e2:c8:99:41:c8:05:19:d7:2a:7a:1a:ad:51:91:87:62:b9:ce:
         cd:2c:d9:a9:b2:67:d8:eb:2d:95:b0:27:b1:df:1e:48:97:4c:
         fe:a2:d3:d7:cb:51:e4:46:8e:ab:24:b4:e4:92:09:fe:7e:80:
         22:2a:9c:60:16:bb:5e:12:0a:9a:28:a7:01:ee:c4:ae:f7:0e:
         99:18:e6:0e:54:d3:46:74:72:b9:ab:1f:d7:f3:71:89:47:f4:
         88:93:55:a0:e0:7c:1c:7f:30:68:89:d4:91:34:eb:2b:7b:6c:
         ff:0b:c4:9a:75:1c:d8:3a:87:57:8a:30:d4:54:e8:c4:d7:bf:
         18:e5:86:d9:ba:fb:e3:36:5e:17:c8:37:86:85:ee:6a:d0:d8:
         ff:64:75:74:87:f7:d2:a2:2e:6b:90:cf:2a:57:5a:4b:37:61:
         85:65:5a:fa:30:db:75:cd:e4:01:2d:72:83:f8:b2:9e:5e:69:
         59:df:e5:f0:09:8d:06:3b:e7:92:18:35:e5:62:61:b2:58:7c:
         28:43:d7:3a:56:9c:5b:ce:bd:82:a2:90:ad:32:c4:c1:5b:4e:
         7e:35:74:0c:9b:7d:96:c5:b4:de:f8:e2:60:a3:e1:69:86:0c:
         eb:8e:0d:fe:4e:81:05:21:fa:7e:71:36:96:e2:97:4b:df:d1:
         d5:b0:6a:58:71:59:55:13:5c:83:b7:4b:41:ed:cd:1b:ce:78:
         88:81:ef:bc:4f:63:a6:c4:eb:e4:7a:2e:d4:69:f2:59:5e:02:
         e4:f7:1d:20:7a:cf:23:76:51:f1:26:3a:19:60:87:46:f6:34:
         59:96:8c:d2:60:07:dd:8a
-----BEGIN CERTIFICATE-----
MIIFXjCCA0agAwIBAgIBAzANBgkqhkiG9w0BAQ0FADBmMQswCQYDVQQGEwJVUzEL
MAkGA1UECAwCQ0ExFTATBgNVBAoMDE9wZW4gdlN3aXRjaDERMA8GA1UECwwIc3dp
dGNoY2ExIDAeBgNVBAMMF3N3aXRjaGNhIENBIENlcnRpZmljYXRlMB4XDTIwMDEw
NTA4Mjc0NFoXDTMwMDEwMjA4Mjc0NFowYDELMAkGA1UEBhMCVVMxCzAJBgNVBAgM
AkNBMRUwEwYDVQQKDAxPcGVuIHZTd2l0Y2gxHzAdBgNVBAsMFk9wZW4gdlN3aXRj
aCBDZXJ0aWZpZXIxDDAKBgNVBAMMA3N3MTCCAiIwDQYJKoZIhvcNAQEBBQADggIP
ADCCAgoCggIBALrX3eVTVEXLnajs5CJRdSY7Zj7bDu+n0FLRaUOB33kzFJn+xEYN
Ok0zS2a2gSbgz2cGYHoFVIa6HShKOpMrPrkFaIN/6Y3FYbQpyzX+gRD/QBtvY2XQ
EQGdXk5eGhwsNfsKwp5ZluPtl9fsae5rcNKPeQG+8/OoHykY18K9/lrejmvYI8+w
/lsjpmxviDsC0ld4RG70X9USzwH15Y2RnFOhScdruxCE+1erLSK/DiF2uU2LcqyO
TEWdPGxCzTKM8TyJqkaZtdHDJ3DUOxaQWWeP41Uh8eUqvm06Vk1AvtbJ0xp+c0dh
1DniiBz242jNV2uAnB52YstMCkRju67LTQRWxBXEQxd05sgd2nhBVtVow53lh9WQ
H5S7Aw/OtIRUugEnpm3LzPMjmDuNDXEOrJNEUOg1B4sa2th9dp/396j+oJuWjJtx
QnDNe9IjqXgfMl2HfHHcvT4QFG+OnOoXd6n/L1Np/BjB6JjWpd64YcRABdHiqrCo
LEyxDhKDDIvhwLYEo5YuYFOInanIA8VHx4P5g2jmfTo70WI4o0Y0ZNwOUAIWDVxn
b/3dNAvuG9FKZ0h4sYyh5kNRawBZg2yF/G2SXqh1+B+Nt0xNV/Wjt0fAX8kE9F4k
GHzh1CuCz8rAIL5Pr5pm3bGCSbOEWCDwFaghspTs6ViB49I4J4dq1KQbAgMBAAGj
HTAbMAkGA1UdEwQCMAAwDgYDVR0RBAcwBYIDc3cxMA0GCSqGSIb3DQEBDQUAA4IC
AQAy+lphWnIrWWUO3Zxo1h0RUzWPBHS1iXCP5TnzREPcmoFdkSIBWLuzSeu1QPwH
LQMnGZ6jk2iXlBWmhQP7vr7k0fbSMkpRCNmV5TJyd4/p0hGa43ujZEwcQ+VssSNw
qt0kNiI0UAZMszq71autbBDK1ti8yl83mLWHAXWgDYaNKNX2lOmXRHVE0S70uYQM
IOnRP4osi2LuyM0atrOpP6h4nkLlJh76/UrgT4oie3DRMCk6W7/nol8NLAFDXCfu
wqndB9ZuT9XiyJlByAUZ1yp6Gq1RkYdiuc7NLNmpsmfY6y2VsCex3x5Il0z+otPX
y1HkRo6rJLTkkgn+foAiKpxgFrteEgqaKKcB7sSu9w6ZGOYOVNNGdHK5qx/X83GJ
R/SIk1Wg4HwcfzBoidSRNOsre2z/C8SadRzYOodXijDUVOjE178Y5YbZuvvjNl4X
yDeGhe5q0Nj/ZHV0h/fSoi5rkM8qV1pLN2GFZVr6MNt1zeQBLXKD+LKeXmlZ3+Xw
CY0GO+eSGDXlYmGyWHwoQ9c6Vpxbzr2CopCtMsTBW05+NXQMm32WxbTe+OJgo+Fp
hgzrjg3+ToEFIfp+cTaW4pdL39HVsGpYcVlVE1yDt0tB7c0bzniIge+8T2OmxOvk
ei7UafJZXgLk9x0ges8jdlHxJjoZYIdG9jRZlozSYAfdig==
-----END CERTIFICATE-----
