Certificate Request:
    Data:
        Version: 1 (0x0)
        Subject: C = US, ST = CA, L = Palo Alto, O = Open vSwitch, OU = Open vSwitch Certifier, CN = ctrl1
        Subject Public Key Info:
            Public Key Algorithm: rsaEncryption
                RSA Public-Key: (4096 bit)
                Modulus:
                    00:ec:2c:e7:2f:24:3a:59:d7:8e:26:82:73:69:2a:
                    9a:0f:94:02:11:0e:0b:8f:96:98:d0:24:0b:f2:bf:
                    01:2c:36:b8:6a:bb:7c:03:82:60:37:f3:81:87:ce:
                    02:2b:40:69:50:e9:a0:b0:4d:68:bb:d5:9d:2a:53:
                    4d:8f:c3:ee:05:c4:64:03:82:47:f3:30:b9:c6:65:
                    b9:6d:f5:80:f9:84:12:c8:19:98:af:77:f7:94:ba:
                    c1:a9:82:99:62:c0:f0:09:e3:36:66:22:b1:e6:e5:
                    81:1c:dc:f2:4f:96:45:ce:9e:33:c4:5a:1a:f2:73:
                    74:c6:28:1c:23:d8:5b:e3:f9:1a:5a:86:7c:25:ea:
                    4d:98:14:3a:95:fb:07:4c:96:c4:33:b4:df:4f:29:
                    c5:ab:ac:3c:5f:88:84:2e:13:3a:22:26:e4:a7:ca:
                    11:f7:1a:43:4b:79:bb:d0:19:e8:3d:05:10:cc:9d:
                    07:47:7e:8d:4d:e6:ba:9d:07:25:3f:d4:43:f6:44:
                    d3:06:d7:4f:f7:64:5d:17:6a:4d:85:4e:23:05:ce:
                    5f:7b:4e:7b:42:d1:6e:f3:c5:e1:b4:9a:18:48:37:
                    1f:25:52:4a:4c:70:8f:36:25:dc:6d:ab:6e:9e:9e:
                    0e:bd:fe:a1:c5:5d:36:d3:ef:5a:2f:fa:52:08:d5:
                    64:8d:58:df:9e:ad:9c:13:62:77:f7:84:26:1c:e4:
                    89:1b:3d:4d:00:bf:12:ab:6d:f9:13:23:f0:c4:83:
                    46:87:e5:79:6b:25:98:06:22:da:c1:b9:e0:42:ae:
                    1f:d7:5b:b6:7d:05:99:65:59:a9:64:9f:9b:98:72:
                    ad:e5:e5:57:68:bb:bd:9f:88:d7:ae:f5:3b:71:2d:
                    95:83:35:63:b4:62:2a:f9:c6:df:18:fa:e0:d4:3b:
                    5b:12:be:c2:c3:89:cf:a4:4d:61:4a:3c:c4:e4:4a:
                    ad:40:97:43:de:43:18:41:a7:86:d7:95:67:c1:ab:
                    77:9c:05:5d:60:21:da:ad:a3:de:8f:ff:13:bb:7e:
                    dc:8b:74:ea:65:2a:78:41:5e:1f:d3:54:44:da:86:
                    a6:f9:b5:ea:bb:c1:fa:f7:7d:f7:fc:c9:52:82:01:
                    ad:64:55:c6:ac:c0:f4:c6:df:2d:58:b8:77:c5:e9:
                    a0:d3:58:61:46:1e:1c:9c:1c:71:47:f4:55:15:30:
                    68:73:72:97:9f:c7:23:30:78:74:6d:ce:af:06:c8:
                    03:55:c7:d2:a9:f2:6c:37:76:7e:76:ad:ed:47:3b:
                    38:e7:b7:5e:87:b7:6c:f4:3c:99:ef:c4:e4:36:f1:
                    47:7b:ed:ee:ab:61:88:63:a0:28:3a:1e:b6:c3:7e:
                    86:5c:0b
                Exponent: 65537 (0x10001)
        Attributes:
        Requested Extensions:
            X509v3 Subject Alternative Name: 
                DNS:ctrl1
    Signature Algorithm: sha256WithRSAEncryption
         50:7a:bf:67:36:b1:bd:aa:dc:ee:19:fc:e3:7b:3b:9d:7b:5e:
         1a:e8:66:06:2a:9a:d4:dc:8c:d5:06:bc:ea:65:22:83:62:ba:
         73:c0:d9:6b:38:42:9f:1a:7e:73:77:38:92:08:98:cc:4a:90:
         c7:24:d2:0b:38:a1:cb:9c:f1:6a:6f:13:df:ec:7c:8f:2c:91:
         31:1d:a1:4c:b5:f8:fa:1d:89:73:e5:80:95:61:3b:ba:0b:d0:
         28:c7:ff:5e:61:ea:11:f7:03:d9:f3:db:ca:af:e7:29:70:09:
         20:43:31:53:2b:a8:b8:51:d1:5b:a6:d4:45:90:9e:d6:6b:a3:
         e8:68:53:28:d7:e9:6b:5e:44:04:f3:ed:c6:bf:33:c1:00:6e:
         9c:fe:1b:91:6c:27:33:95:5e:8f:91:74:bf:9d:7b:3e:27:b6:
         6c:25:34:cf:0f:de:f9:28:be:d0:f8:80:df:7a:1d:6d:48:8b:
         e2:e0:90:85:d0:be:5d:68:33:c8:84:7d:cb:18:4a:9b:d8:16:
         72:9c:71:af:de:5c:0e:44:97:28:3d:6e:72:25:a4:16:d8:ac:
         b3:7a:3c:2b:0d:0c:70:fd:93:f3:77:a4:92:80:99:2b:1f:aa:
         ec:95:f8:07:2e:68:8b:30:34:38:5d:95:5b:1e:8c:e2:0a:40:
         53:91:76:b3:97:fd:2d:7f:86:6c:53:75:e2:f3:27:16:25:c8:
         3e:67:1c:43:8a:c0:d4:26:72:eb:c4:2b:44:4a:b1:f2:13:04:
         7e:b8:72:51:69:3d:e1:d8:1a:dd:80:78:9e:7d:cc:c1:40:e7:
         3f:19:ec:99:b4:88:a4:6f:b7:31:97:10:29:6c:7b:3d:2f:33:
         61:2e:03:a1:b1:b5:01:e3:57:79:29:d5:f2:de:59:2d:57:7a:
         cd:84:66:7e:28:16:30:44:91:e3:4c:34:6a:63:9a:61:00:65:
         b0:e6:63:c0:0b:88:0f:7d:26:46:f5:e6:3f:fe:13:74:05:fd:
         46:e0:34:3d:16:2d:b6:48:9a:29:10:83:a3:d4:53:f8:fc:21:
         8d:12:9d:e6:17:65:f9:e2:dd:60:e4:37:87:df:98:30:26:99:
         92:66:80:a1:05:ab:b1:44:ca:77:1f:42:69:7d:b6:e1:86:05:
         c5:dd:89:a6:4f:77:7b:b8:0e:c9:8c:dc:90:63:e7:32:bc:3d:
         1a:14:1a:d4:6f:9b:65:19:60:e8:8b:59:1b:fe:5f:87:c4:f3:
         d3:5f:be:d5:61:25:16:e9:30:63:97:ee:69:bb:3d:ef:7c:c1:
         6b:b5:43:23:d5:75:b7:ac:7f:e0:c5:fd:07:6e:7f:74:4d:19:
         85:50:a9:bd:02:5a:eb:ce
-----BEGIN CERTIFICATE REQUEST-----
MIIE3jCCAsYCAQAwdjELMAkGA1UEBhMCVVMxCzAJBgNVBAgMAkNBMRIwEAYDVQQH
DAlQYWxvIEFsdG8xFTATBgNVBAoMDE9wZW4gdlN3aXRjaDEfMB0GA1UECwwWT3Bl
biB2U3dpdGNoIENlcnRpZmllcjEOMAwGA1UEAwwFY3RybDEwggIiMA0GCSqGSIb3
DQEBAQUAA4ICDwAwggIKAoICAQDsLOcvJDpZ144mgnNpKpoPlAIRDguPlpjQJAvy
vwEsNrhqu3wDgmA384GHzgIrQGlQ6aCwTWi71Z0qU02Pw+4FxGQDgkfzMLnGZblt
9YD5hBLIGZivd/eUusGpgpliwPAJ4zZmIrHm5YEc3PJPlkXOnjPEWhryc3TGKBwj
2Fvj+Rpahnwl6k2YFDqV+wdMlsQztN9PKcWrrDxfiIQuEzoiJuSnyhH3GkNLebvQ
Geg9BRDMnQdHfo1N5rqdByU/1EP2RNMG10/3ZF0Xak2FTiMFzl97TntC0W7zxeG0
mhhINx8lUkpMcI82Jdxtq26eng69/qHFXTbT71ov+lII1WSNWN+erZwTYnf3hCYc
5IkbPU0AvxKrbfkTI/DEg0aH5XlrJZgGItrBueBCrh/XW7Z9BZllWalkn5uYcq3l
5Vdou72fiNeu9TtxLZWDNWO0Yir5xt8Y+uDUO1sSvsLDic+kTWFKPMTkSq1Al0Pe
QxhBp4bXlWfBq3ecBV1gIdqto96P/xO7ftyLdOplKnhBXh/TVETahqb5teq7wfr3
fff8yVKCAa1kVcaswPTG3y1YuHfF6aDTWGFGHhycHHFH9FUVMGhzcpefxyMweHRt
zq8GyANVx9Kp8mw3dn52re1HOzjnt16Ht2z0PJnvxOQ28Ud77e6rYYhjoCg6HrbD
foZcCwIDAQABoCMwIQYJKoZIhvcNAQkOMRQwEjAQBgNVHREECTAHggVjdHJsMTAN
BgkqhkiG9w0BAQsFAAOCAgEAUHq/Zzaxvarc7hn843s7nXteGuhmBiqa1NyM1Qa8
6mUig2K6c8DZazhCnxp+c3c4kgiYzEqQxyTSCzihy5zxam8T3+x8jyyRMR2hTLX4
+h2Jc+WAlWE7ugvQKMf/XmHqEfcD2fPbyq/nKXAJIEMxUyuouFHRW6bURZCe1muj
6GhTKNfpa15EBPPtxr8zwQBunP4bkWwnM5Vej5F0v517Pie2bCU0zw/e+Si+0PiA
33odbUiL4uCQhdC+XWgzyIR9yxhKm9gWcpxxr95cDkSXKD1uciWkFtiss3o8Kw0M
cP2T83ekkoCZKx+q7JX4By5oizA0OF2VWx6M4gpAU5F2s5f9LX+GbFN14vMnFiXI
PmccQ4rA1CZy68QrREqx8hMEfrhyUWk94dga3YB4nn3MwUDnPxnsmbSIpG+3MZcQ
KWx7PS8zYS4DobG1AeNXeSnV8t5ZLVd6zYRmfigWMESR40w0amOaYQBlsOZjwAuI
D30mRvXmP/4TdAX9RuA0PRYttkiaKRCDo9RT+PwhjRKd5hdl+eLdYOQ3h9+YMCaZ
kmaAoQWrsUTKdx9CaX224YYFxd2Jpk93e7gOyYzckGPnMrw9GhQa1G+bZRlg6ItZ
G/5fh8Tz01++1WElFukwY5fuabs973zBa7VDI9V1t6x/4MX9B25/dE0ZhVCpvQJa
684=
-----END CERTIFICATE REQUEST-----
