Certificate:
    Data:
        Version: 3 (0x2)
        Serial Number: 2 (0x2)
        Signature Algorithm: sha512WithRSAEncryption
        Issuer: C=US, ST=CA, O=Open vSwitch, OU=switchca, CN=switchca CA Certificate
        Validity
            Not Before: Jan  5 08:27:19 2020 GMT
            Not After : Jan  2 08:27:19 2030 GMT
        Subject: C=US, ST=CA, O=Open vSwitch, OU=Open vSwitch Certifier, CN=ctrl1
        Subject Public Key Info:
            Public Key Algorithm: rsaEncryption
                RSA Public-Key: (4096 bit)
                Modulus:
                    00:ec:2c:e7:2f:24:3a:59:d7:8e:26:82:73:69:2a:
                    9a:0f:94:02:11:0e:0b:8f:96:98:d0:24:0b:f2:bf:
                    01:2c:36:b8:6a:bb:7c:03:82:60:37:f3:81:87:ce:
                    02:2b:40:69:50:e9:a0:b0:4d:68:bb:d5:9d:2a:53:
                    4d:8f:c3:ee:05:c4:64:03:82:47:f3:30:b9:c6:65:
                    b9:6d:f5:80:f9:84:12:c8:19:98:af:77:f7:94:ba:
                    c1:a9:82:99:62:c0:f0:09:e3:36:66:22:b1:e6:e5:
                    81:1c:dc:f2:4f:96:45:ce:9e:33:c4:5a:1a:f2:73:
                    74:c6:28:1c:23:d8:5b:e3:f9:1a:5a:86:7c:25:ea:
                    4d:98:14:3a:95:fb:07:4c:96:c4:33:b4:df:4f:29:
                    c5:ab:ac:3c:5f:88:84:2e:13:3a:22:26:e4:a7:ca:
                    11:f7:1a:43:4b:79:bb:d0:19:e8:3d:05:10:cc:9d:
                    07:47:7e:8d:4d:e6:ba:9d:07:25:3f:d4:43:f6:44:
                    d3:06:d7:4f:f7:64:5d:17:6a:4d:85:4e:23:05:ce:
                    5f:7b:4e:7b:42:d1:6e:f3:c5:e1:b4:9a:18:48:37:
                    1f:25:52:4a:4c:70:8f:36:25:dc:6d:ab:6e:9e:9e:
                    0e:bd:fe:a1:c5:5d:36:d3:ef:5a:2f:fa:52:08:d5:
                    64:8d:58:df:9e:ad:9c:13:62:77:f7:84:26:1c:e4:
                    89:1b:3d:4d:00:bf:12:ab:6d:f9:13:23:f0:c4:83:
                    46:87:e5:79:6b:25:98:06:22:da:c1:b9:e0:42:ae:
                    1f:d7:5b:b6:7d:05:99:65:59:a9:64:9f:9b:98:72:
                    ad:e5:e5:57:68:bb:bd:9f:88:d7:ae:f5:3b:71:2d:
                    95:83:35:63:b4:62:2a:f9:c6:df:18:fa:e0:d4:3b:
                    5b:12:be:c2:c3:89:cf:a4:4d:61:4a:3c:c4:e4:4a:
                    ad:40:97:43:de:43:18:41:a7:86:d7:95:67:c1:ab:
                    77:9c:05:5d:60:21:da:ad:a3:de:8f:ff:13:bb:7e:
                    dc:8b:74:ea:65:2a:78:41:5e:1f:d3:54:44:da:86:
                    a6:f9:b5:ea:bb:c1:fa:f7:7d:f7:fc:c9:52:82:01:
                    ad:64:55:c6:ac:c0:f4:c6:df:2d:58:b8:77:c5:e9:
                    a0:d3:58:61:46:1e:1c:9c:1c:71:47:f4:55:15:30:
                    68:73:72:97:9f:c7:23:30:78:74:6d:ce:af:06:c8:
                    03:55:c7:d2:a9:f2:6c:37:76:7e:76:ad:ed:47:3b:
                    38:e7:b7:5e:87:b7:6c:f4:3c:99:ef:c4:e4:36:f1:
                    47:7b:ed:ee:ab:61:88:63:a0:28:3a:1e:b6:c3:7e:
                    86:5c:0b
                Exponent: 65537 (0x10001)
        X509v3 extensions:
            X509v3 Basic Constraints: 
                CA:FALSE
            X509v3 Subject Alternative Name: 
                DNS:ctrl1
    Signature Algorithm: sha512WithRSAEncryption
         8a:af:40:10:3b:3a:1f:e1:e7:22:8f:1c:76:3b:78:f6:13:be:
         c5:36:c6:28:22:b5:22:f8:23:f5:e5:bf:23:c6:dd:17:26:8b:
         99:a5:7b:47:15:5c:6d:c5:65:74:62:d8:71:2c:f8:5c:da:15:
         ea:85:36:12:73:be:cf:74:0d:bf:0a:97:29:a4:04:0f:a5:b1:
         2b:09:c3:37:bd:9b:29:a7:92:4f:4a:59:1e:e1:c4:a0:b5:f8:
         57:2e:d8:d6:eb:04:71:34:3b:39:52:b9:e8:5c:00:0f:fa:c5:
         4f:22:44:7c:a1:31:9e:a5:77:01:fc:66:90:9a:b8:3a:93:48:
         13:50:e0:8f:70:5d:b2:fe:8d:93:61:ef:6f:5d:ed:41:8c:05:
         57:0e:2d:b8:79:1f:3c:e4:14:3a:b6:af:0e:a0:72:52:98:4b:
         5e:57:86:a9:b4:d1:72:9e:53:00:29:df:f7:4e:52:2a:80:d4:
         77:8d:9c:a3:f5:62:6e:80:d9:42:d4:3a:b3:77:c7:e8:4f:67:
         b1:9c:1b:81:12:25:dc:88:a0:4a:fe:a3:4d:84:e8:d9:5f:e0:
         3e:24:cd:60:b8:22:91:37:6c:4c:45:83:4c:a1:f1:d8:3b:4d:
         5c:2c:86:d7:28:b0:ad:c6:84:b5:b7:45:b3:ce:e3:31:f7:a3:
         42:c1:8b:c2:6c:0f:08:c4:ea:7c:69:b7:a5:53:28:60:1d:db:
         9f:3d:a6:fc:aa:36:c5:7a:6f:08:c6:9f:a0:f4:18:e0:e8:9d:
         a2:87:7a:85:d7:fd:6a:02:93:48:22:0b:09:51:86:3d:e3:a9:
         32:c2:76:20:e2:dc:ff:30:96:ad:25:e5:1a:6d:ae:bd:f6:b6:
         20:5e:73:7c:b7:0d:f6:18:c1:1d:47:f2:9b:22:d0:c7:ad:cf:
         6f:ca:0e:92:71:58:b6:13:6f:ea:0a:98:76:80:a6:dd:f0:61:
         3d:c8:d7:d9:69:91:ee:97:95:db:16:17:ed:4a:06:50:e9:66:
         c1:dc:e0:67:52:2d:c1:c9:65:40:a7:c8:07:b7:16:fa:7c:0c:
         53:4c:38:14:55:9a:59:79:40:4c:5d:2c:f3:c9:5b:a5:fb:c5:
         f4:c4:59:66:52:b6:b2:07:04:2b:8f:98:40:91:15:61:65:57:
         92:69:c2:eb:64:55:1a:8f:4d:20:6b:06:02:9f:54:ee:89:1c:
         00:df:5b:d5:a0:a4:0a:1b:59:87:1f:70:2c:6a:71:b4:89:ce:
         a4:42:ca:75:6b:b2:9f:56:bf:91:79:ba:63:15:f0:10:da:1c:
         e3:57:da:d3:7c:60:27:a9:42:5c:b7:b3:bb:e0:da:5e:2e:f7:
         d4:23:07:00:3f:5a:a6:e2
-----BEGIN CERTIFICATE-----
MIIFYjCCA0qgAwIBAgIBAjANBgkqhkiG9w0BAQ0FADBmMQswCQYDVQQGEwJVUzEL
MAkGA1UECAwCQ0ExFTATBgNVBAoMDE9wZW4gdlN3aXRjaDERMA8GA1UECwwIc3dp
dGNoY2ExIDAeBgNVBAMMF3N3aXRjaGNhIENBIENlcnRpZmljYXRlMB4XDTIwMDEw
NTA4MjcxOVoXDTMwMDEwMjA4MjcxOVowYjELMAkGA1UEBhMCVVMxCzAJBgNVBAgM
AkNBMRUwEwYDVQQKDAxPcGVuIHZTd2l0Y2gxHzAdBgNVBAsMFk9wZW4gdlN3aXRj
aCBDZXJ0aWZpZXIxDjAMBgNVBAMMBWN0cmwxMIICIjANBgkqhkiG9w0BAQEFAAOC
Ag8AMIICCgKCAgEA7CznLyQ6WdeOJoJzaSqaD5QCEQ4Lj5aY0CQL8r8BLDa4art8
A4JgN/OBh84CK0BpUOmgsE1ou9WdKlNNj8PuBcRkA4JH8zC5xmW5bfWA+YQSyBmY
r3f3lLrBqYKZYsDwCeM2ZiKx5uWBHNzyT5ZFzp4zxFoa8nN0xigcI9hb4/kaWoZ8
JepNmBQ6lfsHTJbEM7TfTynFq6w8X4iELhM6Iibkp8oR9xpDS3m70BnoPQUQzJ0H
R36NTea6nQclP9RD9kTTBtdP92RdF2pNhU4jBc5fe057QtFu88XhtJoYSDcfJVJK
THCPNiXcbatunp4Ovf6hxV020+9aL/pSCNVkjVjfnq2cE2J394QmHOSJGz1NAL8S
q235EyPwxINGh+V5ayWYBiLawbngQq4f11u2fQWZZVmpZJ+bmHKt5eVXaLu9n4jX
rvU7cS2VgzVjtGIq+cbfGPrg1DtbEr7Cw4nPpE1hSjzE5EqtQJdD3kMYQaeG15Vn
wat3nAVdYCHaraPej/8Tu37ci3TqZSp4QV4f01RE2oam+bXqu8H69333/MlSggGt
ZFXGrMD0xt8tWLh3xemg01hhRh4cnBxxR/RVFTBoc3KXn8cjMHh0bc6vBsgDVcfS
qfJsN3Z+dq3tRzs457deh7ds9DyZ78TkNvFHe+3uq2GIY6AoOh62w36GXAsCAwEA
AaMfMB0wCQYDVR0TBAIwADAQBgNVHREECTAHggVjdHJsMTANBgkqhkiG9w0BAQ0F
AAOCAgEAiq9AEDs6H+HnIo8cdjt49hO+xTbGKCK1Ivgj9eW/I8bdFyaLmaV7RxVc
bcVldGLYcSz4XNoV6oU2EnO+z3QNvwqXKaQED6WxKwnDN72bKaeST0pZHuHEoLX4
Vy7Y1usEcTQ7OVK56FwAD/rFTyJEfKExnqV3AfxmkJq4OpNIE1Dgj3Bdsv6Nk2Hv
b13tQYwFVw4tuHkfPOQUOravDqByUphLXleGqbTRcp5TACnf905SKoDUd42co/Vi
boDZQtQ6s3fH6E9nsZwbgRIl3IigSv6jTYTo2V/gPiTNYLgikTdsTEWDTKHx2DtN
XCyG1yiwrcaEtbdFs87jMfejQsGLwmwPCMTqfGm3pVMoYB3bnz2m/Ko2xXpvCMaf
oPQY4Oidood6hdf9agKTSCILCVGGPeOpMsJ2IOLc/zCWrSXlGm2uvfa2IF5zfLcN
9hjBHUfymyLQx63Pb8oOknFYthNv6gqYdoCm3fBhPcjX2WmR7peV2xYX7UoGUOlm
wdzgZ1ItwcllQKfIB7cW+nwMU0w4FFWaWXlATF0s88lbpfvF9MRZZlK2sgcEK4+Y
QJEVYWVXkmnC62RVGo9NIGsGAp9U7okcAN9b1aCkChtZhx9wLGpxtInOpELKdWuy
n1a/kXm6YxXwENoc41fa03xgJ6lCXLezu+DaXi731CMHAD9apuI=
-----END CERTIFICATE-----
