Certificate:
    Data:
        Version: 3 (0x2)
        Serial Number: 1 (0x1)
        Signature Algorithm: sha512WithRSAEncryption
        Issuer: C=US, ST=CA, O=Open vSwitch, OU=switchca, CN=switchca CA Certificate
        Validity
            Not Before: Jan  5 08:26:36 2020 GMT
            Not After : Jan  2 08:26:36 2030 GMT
        Subject: C=US, ST=CA, O=Open vSwitch, OU=switchca, CN=switchca CA Certificate
        Subject Public Key Info:
            Public Key Algorithm: rsaEncryption
                RSA Public-Key: (4096 bit)
                Modulus:
                    00:ea:78:77:13:56:61:e5:80:ec:c9:dd:fc:7d:eb:
                    2c:8b:cc:33:dc:6c:65:e0:40:f5:12:8b:af:78:80:
                    e0:34:b3:b9:07:5e:e9:b0:53:4f:25:07:2b:7e:73:
                    5f:5c:a8:33:fe:07:d1:43:ed:5e:6d:07:a2:ff:2b:
                    f8:cb:7c:6a:ae:3e:fd:07:95:6d:ec:8a:43:5a:9f:
                    2a:4d:00:15:0c:72:c3:3f:ab:89:d5:29:96:cb:43:
                    5f:9b:e9:5a:59:20:44:b8:7f:95:d8:35:3f:38:2f:
                    2c:85:f3:ec:51:de:1b:17:28:b3:8e:98:18:fe:a5:
                    12:a6:49:1b:4e:2b:e7:64:42:ca:96:65:c7:35:e0:
                    f0:fa:7a:d6:44:72:b9:0a:f6:a5:77:24:c5:88:93:
                    37:6f:07:16:31:a8:36:c2:ce:a8:04:60:07:d4:c9:
                    b2:b7:92:e8:b8:55:fd:d9:87:6f:c3:8d:a8:cd:d9:
                    b5:20:78:04:1c:38:b4:85:c6:fe:3c:82:a5:57:88:
                    e7:ec:c7:64:9b:c2:d2:0d:2d:c2:56:da:51:9c:8d:
                    7e:46:a1:24:de:ac:68:f8:85:96:ae:32:16:26:18:
                    bf:63:0e:dd:3b:4f:5b:80:81:b3:f9:74:b6:b4:fc:
                    94:a3:e0:2e:9f:7b:4e:c6:11:62:52:58:3b:fc:6b:
                    61:32:4e:05:28:1d:ab:d2:26:2a:41:dd:08:52:ff:
                    f3:81:76:bf:06:cf:28:67:14:a9:d6:1c:d3:65:1f:
                    1c:b7:95:d8:d3:20:a7:5b:a2:68:4b:92:54:bf:ac:
                    cb:ae:84:6c:c1:55:41:36:2b:a1:96:07:90:96:68:
                    7c:68:93:db:15:93:30:43:dc:51:15:00:4e:80:aa:
                    e8:b9:d3:5b:4d:ce:8c:c8:f3:16:73:6a:17:4f:a8:
                    99:88:0d:60:ea:53:4e:a7:61:5c:98:d1:63:1b:92:
                    4e:28:af:1c:ff:44:65:63:e5:9e:b4:14:bd:d5:e9:
                    ac:1c:2d:21:ed:ab:f8:32:c4:b1:49:d4:a3:24:63:
                    7a:75:44:a8:d0:5e:64:24:9c:d8:e0:6c:cf:ef:47:
                    69:57:c6:05:06:cb:e0:b8:5d:78:5d:12:e7:d0:7b:
                    26:1e:4b:f1:63:28:ce:64:7b:91:9a:7b:f8:9b:d0:
                    ac:26:b9:83:aa:ec:7d:e6:3c:f2:ce:14:d3:3f:b9:
                    cc:26:4a:8b:95:d4:54:88:4f:ef:5d:1a:64:53:a1:
                    fc:8b:1b:c4:ce:e5:5f:f1:7d:b9:3f:61:e3:05:08:
                    9e:ff:48:6b:c2:ae:42:50:36:59:1c:04:fa:ee:af:
                    9a:27:f2:7f:d7:56:85:fb:74:23:d0:ad:27:74:27:
                    74:3e:cd
                Exponent: 65537 (0x10001)
        X509v3 extensions:
            X509v3 Basic Constraints: 
                CA:TRUE
    Signature Algorithm: sha512WithRSAEncryption
         dc:48:eb:06:e9:a5:1c:a1:b2:58:46:b1:c5:27:92:58:54:f5:
         7f:ad:d6:20:92:1f:ec:ad:88:3e:95:0c:f7:15:7d:2f:9e:2a:
         5d:87:49:97:91:cf:f7:41:2a:8c:fa:87:08:b6:d2:59:95:04:
         0e:65:3c:c9:52:6c:9c:18:b2:c1:bd:d8:90:e1:d2:7f:f4:41:
         4f:66:60:3a:8e:76:62:fc:3f:ca:a4:d7:16:19:b3:03:26:b1:
         eb:74:52:04:1c:7a:ca:32:2b:f4:b0:f1:56:b9:9a:b0:5f:ed:
         f9:58:08:dd:82:0d:d2:1e:d4:62:af:02:52:fd:5f:6a:b4:d8:
         f1:e5:ca:d3:be:d8:f1:f4:46:55:48:23:22:8c:77:f2:ec:ea:
         83:95:af:9f:d8:a6:0d:bf:ea:16:30:a3:b0:e7:ee:74:48:d8:
         81:90:e4:1f:8a:b1:e8:c1:1a:b7:07:4d:4e:37:42:0f:95:04:
         1f:db:0f:7c:3f:38:b9:7c:94:3c:8b:0b:8e:9b:ef:38:44:b9:
         40:e6:20:08:27:19:a9:55:18:dd:4b:12:3a:61:27:27:db:83:
         89:cd:aa:00:87:a1:10:cf:fe:ea:2a:7c:eb:60:66:1f:17:82:
         4c:55:c9:45:c1:ed:0d:97:2b:63:88:a9:49:e9:9f:93:72:09:
         38:b3:6a:94:1a:6b:a4:94:a3:9f:2d:4e:5a:d7:80:ab:17:5c:
         e7:f2:ac:69:2b:b7:72:62:45:26:6e:cd:35:ce:13:a6:00:37:
         3c:10:6d:49:82:41:25:b8:05:a7:78:d6:2a:ed:8f:0c:49:d5:
         95:52:56:e4:1a:dc:e5:2b:e5:a0:ef:3f:51:60:d0:d2:63:c6:
         fe:10:2b:fb:6f:14:5d:90:f4:93:7c:8a:9e:ef:5a:1b:6b:e5:
         e3:d2:3e:3f:2e:ca:35:85:82:ee:cb:e8:1e:75:07:8d:cf:9d:
         e7:8f:e8:0a:c1:ec:aa:a2:15:51:ba:5e:25:30:9d:02:9b:66:
         1c:bd:76:7f:a5:3a:af:2a:4e:be:2d:d8:2f:5e:9b:4f:c8:4d:
         8e:a8:fb:fb:cf:bf:eb:83:2e:5e:a0:46:26:21:80:b9:6b:18:
         44:f9:52:85:f4:3b:8f:79:33:71:90:94:bd:ff:c0:8b:85:90:
         83:fa:c1:7d:e0:05:4f:c4:61:f9:85:83:91:83:23:d9:b3:60:
         4d:15:4b:68:30:3e:4d:10:ea:06:96:4c:50:8b:bb:e1:56:c3:
         95:f3:d4:62:3b:14:bb:09:25:b2:bc:c5:b6:d5:a8:86:89:4c:
         11:d6:ec:8e:5c:b9:cb:a7:3c:45:49:fb:d1:e1:a1:22:b9:b4:
         50:8c:9c:3f:15:58:aa:e0
-----BEGIN CERTIFICATE-----
MIIFVzCCAz+gAwIBAgIBATANBgkqhkiG9w0BAQ0FADBmMQswCQYDVQQGEwJVUzEL
MAkGA1UECAwCQ0ExFTATBgNVBAoMDE9wZW4gdlN3aXRjaDERMA8GA1UECwwIc3dp
dGNoY2ExIDAeBgNVBAMMF3N3aXRjaGNhIENBIENlcnRpZmljYXRlMB4XDTIwMDEw
NTA4MjYzNloXDTMwMDEwMjA4MjYzNlowZjELMAkGA1UEBhMCVVMxCzAJBgNVBAgM
AkNBMRUwEwYDVQQKDAxPcGVuIHZTd2l0Y2gxETAPBgNVBAsMCHN3aXRjaGNhMSAw
HgYDVQQDDBdzd2l0Y2hjYSBDQSBDZXJ0aWZpY2F0ZTCCAiIwDQYJKoZIhvcNAQEB
BQADggIPADCCAgoCggIBAOp4dxNWYeWA7Mnd/H3rLIvMM9xsZeBA9RKLr3iA4DSz
uQde6bBTTyUHK35zX1yoM/4H0UPtXm0Hov8r+Mt8aq4+/QeVbeyKQ1qfKk0AFQxy
wz+ridUplstDX5vpWlkgRLh/ldg1PzgvLIXz7FHeGxcos46YGP6lEqZJG04r52RC
ypZlxzXg8Pp61kRyuQr2pXckxYiTN28HFjGoNsLOqARgB9TJsreS6LhV/dmHb8ON
qM3ZtSB4BBw4tIXG/jyCpVeI5+zHZJvC0g0twlbaUZyNfkahJN6saPiFlq4yFiYY
v2MO3TtPW4CBs/l0trT8lKPgLp97TsYRYlJYO/xrYTJOBSgdq9ImKkHdCFL/84F2
vwbPKGcUqdYc02UfHLeV2NMgp1uiaEuSVL+sy66EbMFVQTYroZYHkJZofGiT2xWT
MEPcURUAToCq6LnTW03OjMjzFnNqF0+omYgNYOpTTqdhXJjRYxuSTiivHP9EZWPl
nrQUvdXprBwtIe2r+DLEsUnUoyRjenVEqNBeZCSc2OBsz+9HaVfGBQbL4LhdeF0S
59B7Jh5L8WMozmR7kZp7+JvQrCa5g6rsfeY88s4U0z+5zCZKi5XUVIhP710aZFOh
/IsbxM7lX/F9uT9h4wUInv9Ia8KuQlA2WRwE+u6vmifyf9dWhft0I9CtJ3QndD7N
AgMBAAGjEDAOMAwGA1UdEwQFMAMBAf8wDQYJKoZIhvcNAQENBQADggIBANxI6wbp
pRyhslhGscUnklhU9X+t1iCSH+ytiD6VDPcVfS+eKl2HSZeRz/dBKoz6hwi20lmV
BA5lPMlSbJwYssG92JDh0n/0QU9mYDqOdmL8P8qk1xYZswMmset0UgQcesoyK/Sw
8Va5mrBf7flYCN2CDdIe1GKvAlL9X2q02PHlytO+2PH0RlVIIyKMd/Ls6oOVr5/Y
pg2/6hYwo7Dn7nRI2IGQ5B+KsejBGrcHTU43Qg+VBB/bD3w/OLl8lDyLC46b7zhE
uUDmIAgnGalVGN1LEjphJyfbg4nNqgCHoRDP/uoqfOtgZh8XgkxVyUXB7Q2XK2OI
qUnpn5NyCTizapQaa6SUo58tTlrXgKsXXOfyrGkrt3JiRSZuzTXOE6YANzwQbUmC
QSW4Bad41irtjwxJ1ZVSVuQa3OUr5aDvP1Fg0NJjxv4QK/tvFF2Q9JN8ip7vWhtr
5ePSPj8uyjWFgu7L6B51B43PneeP6ArB7KqiFVG6XiUwnQKbZhy9dn+lOq8qTr4t
2C9em0/ITY6o+/vPv+uDLl6gRiYhgLlrGET5UoX0O495M3GQlL3/wIuFkIP6wX3g
BU/EYfmFg5GDI9mzYE0VS2gwPk0Q6gaWTFCLu+FWw5Xz1GI7FLsJJbK8xbbVqIaJ
TBHW7I5cucunPEVJ+9HhoSK5tFCMnD8VWKrg
-----END CERTIFICATE-----
-----BEGIN X509 CRL-----
MIIDJjCCAQ4CAQEwDQYJKoZIhvcNAQENBQAwZjELMAkGA1UEBhMCVVMxCzAJBgNV
BAgMAkNBMRUwEwYDVQQKDAxPcGVuIHZTd2l0Y2gxETAPBgNVBAsMCHN3aXRjaGNh
MSAwHgYDVQQDDBdzd2l0Y2hjYSBDQSBDZXJ0aWZpY2F0ZRcNMjAwMTIwMTQxMTEy
WhcNMjAwMjE5MTQxMTEyWjBkMBICAQIXDTIwMDExMTEwMzM0N1owEgIBAxcNMjAw
MTExMTAzNjU0WjASAgEHFw0yMDAxMTIyMDM3NDhaMBICAQgXDTIwMDExNjE0MzEy
N1owEgIBCRcNMjAwMTE2MTQzNzA5WqAOMAwwCgYDVR0UBAMCAQowDQYJKoZIhvcN
AQENBQADggIBAK0ZJa/ZcEcQZpRY01ATIEwzWjymIZcBluYiqzjSW1oEFW4f91aG
no+7ghsVO5qavvGL1eT2UlGIiSkx0lgwllZD0xhzr/+jJbH/kPSrnbihLUw6yMSs
hOzV4u7K3DqE0XomJmGQleGbdAvD4X5gF7n9PWk96uvsjM+8UkFl/DTfFStpy04h
yEBJ9ZfVIOf+PHHmzoK34PMjnWCBqwGXLtv3mKnT3OBPBbgzK00K3jL1yOSMoCWo
VZehSSeB5aACGfYMmdbvw/UkJYKKNaFmvbaZCZwV9W1iF+HS0osHEoE/5vf4Mq7Y
x/+tg6afhJfJYxc2OVWjLOIpWjXgKg7EeeoDwaTc3BW1xxmkDOB4FS4lKpjxc8yy
GOVjn7HmsjKuTR/tyoBmUMSAiVfvTSEiNvd5M7T87noTMTy43H7JsRm19j/H5qYd
PQgtyTyIvoGdASn0tFUrCW5BvSMZiDgGTNyEb566PAaGrHjL0irt+N1mpOSuchK8
HnqwBZrlUBP+oi+iJyHVPiYHVoe5rROzBrCpQ0RSz6UgTB9tGIisE9puH6fFJXDi
MGlmQ25E+NswSnDKZMgWA9kSjkoFGSt3XKZ5/Cz+DV0kByfWGZpTrgd+3pc1oQ4j
8uoqALSXIMq9SJnJwHZRulSnhljpl7c/Wj3w//BHT2zqXLtyFDkEFuL9
-----END X509 CRL-----
