Certificate:
    Data:
        Version: 3 (0x2)
        Serial Number: 2 (0x2)
        Signature Algorithm: sha512WithRSAEncryption
        Issuer: C=US, ST=CA, O=Open vSwitch, OU=switchca, CN=switchca CA Certificate
        Validity
            Not Before: Mar 16 20:16:09 2020 GMT
            Not After : Mar 14 20:16:09 2030 GMT
        Subject: C=US, ST=CA, O=Open vSwitch, OU=Open vSwitch Certifier, CN=controllerA
        Subject Public Key Info:
            Public Key Algorithm: rsaEncryption
                RSA Public-Key: (4096 bit)
                Modulus:
                    00:ce:ff:32:61:c8:4a:68:33:ad:b7:8a:52:73:f0:
                    84:3a:08:3d:8d:d2:7a:de:94:be:4e:21:82:06:6f:
                    7a:ad:c6:fa:6d:5a:13:ea:e3:90:42:52:ea:99:04:
                    95:2b:87:04:97:ed:5b:97:03:5f:a1:e6:fd:6b:a8:
                    a4:0b:5e:8b:2c:23:9d:2c:59:43:3b:6b:1a:31:3e:
                    75:7e:39:d6:bf:28:7f:65:d5:04:1d:aa:ea:ee:11:
                    10:b9:56:8b:0d:71:8e:5b:79:3b:47:ff:11:2c:80:
                    e1:c5:1c:3f:aa:0b:b2:37:4b:f0:6d:d2:98:df:92:
                    5a:98:21:95:f1:a0:f0:ee:1c:0d:c4:d1:1d:04:71:
                    24:c0:f1:a0:0b:66:31:ff:8a:d9:93:71:10:bb:62:
                    d9:4c:35:c9:11:73:a1:7d:c9:6e:c0:d9:44:be:c2:
                    d3:a2:4e:be:4f:d8:8e:b1:07:c9:fa:bb:ca:91:21:
                    e2:97:0f:cf:6e:d8:e6:bd:d4:0e:8e:2b:66:e0:8b:
                    72:cf:95:a3:e1:0f:18:04:e8:df:e4:36:eb:d2:75:
                    c6:d4:af:b9:2b:0d:62:0a:07:86:3a:91:c1:ec:c5:
                    2b:a0:65:58:9e:33:04:45:81:35:f4:53:ce:ef:0e:
                    ae:5f:92:70:72:e0:65:a5:8b:56:47:ca:3e:85:43:
                    0b:2d:21:59:03:f3:fe:6c:44:51:0e:68:1c:96:1e:
                    5f:68:58:df:c2:bc:5c:5e:a7:c3:82:cb:f0:47:d1:
                    73:d1:35:10:df:1e:83:52:43:d1:81:66:e8:d2:f1:
                    22:0c:f7:f7:d6:e8:23:31:ca:9d:03:28:a8:77:cf:
                    cf:ae:c4:39:d7:df:5b:7a:46:53:96:52:52:9c:bb:
                    1b:3c:51:8f:63:9d:3f:c2:f8:ad:f6:92:d2:65:c6:
                    f1:a9:3e:c3:42:c4:29:15:67:9f:85:6d:f2:93:ed:
                    d0:aa:98:f0:70:87:d0:1b:56:b0:23:8d:b3:fc:f4:
                    f4:70:8c:66:71:64:32:bd:f2:21:d7:bf:f6:93:06:
                    db:41:9c:60:36:f6:ec:fd:d3:19:31:8c:b2:59:28:
                    61:ce:93:72:2b:0f:61:90:0a:43:ec:51:a7:c0:25:
                    1c:1a:81:a6:48:0a:b6:8b:da:27:6e:86:24:b0:d4:
                    8c:77:49:bc:c9:1e:73:bd:d5:d5:d9:36:60:79:b2:
                    70:90:0a:3f:07:c8:99:1c:2a:aa:5b:96:b9:82:96:
                    3b:fd:36:92:13:b5:18:55:82:c2:45:ea:07:42:43:
                    06:db:08:f8:45:d8:fc:a3:63:79:ba:a1:fa:35:f2:
                    83:ae:15:6e:1e:44:62:e4:b3:b6:ff:2f:1a:f2:24:
                    ef:ee:bd
                Exponent: 65537 (0x10001)
        X509v3 extensions:
            X509v3 Basic Constraints: 
                CA:FALSE
            X509v3 Subject Alternative Name: 
                DNS:controllerA
    Signature Algorithm: sha512WithRSAEncryption
         03:a4:f8:fa:1d:8a:b9:f1:16:2d:3b:09:e3:2a:61:97:ac:09:
         7e:ba:b3:34:fa:f3:c0:c6:26:b1:a4:22:39:6f:10:90:97:88:
         e7:19:88:89:c4:50:d1:74:0d:b2:4c:79:80:00:e1:16:e4:c6:
         c5:1d:2e:5e:92:1e:04:63:27:13:cb:88:b8:b4:6b:59:f8:a6:
         24:c6:1c:6f:90:11:70:02:8a:f1:e0:cf:07:4a:ac:52:e5:c1:
         8b:d5:8e:21:56:6e:b2:03:99:9b:bc:4e:0b:9e:45:4c:8d:0a:
         e0:c0:95:2d:d2:1e:52:e3:78:76:80:bf:7a:ca:e9:ac:82:75:
         65:0b:0b:d0:47:3d:de:8f:f1:8f:82:c6:e4:3b:4d:7d:75:d6:
         cc:fb:fa:2b:3a:a7:e9:b4:f8:f6:b7:80:e2:b6:ab:7f:89:71:
         3f:67:6e:18:56:c2:58:82:96:86:e6:ca:17:21:c2:79:59:88:
         bd:3f:26:28:15:da:bd:ec:c8:ff:7d:b7:d3:4e:30:68:eb:18:
         6a:ea:a3:90:a3:ac:87:d4:9d:fa:46:b6:02:30:e5:e4:b4:b7:
         65:9b:16:40:86:0b:82:de:2e:40:a0:1b:0a:77:5d:0f:fe:fe:
         f5:32:5c:54:d7:9a:68:ce:c1:b5:98:f8:3a:6a:8c:d4:74:ad:
         58:bb:95:34:64:59:fa:ca:c3:37:1a:b6:67:b5:a2:4f:fe:fc:
         03:46:03:91:32:d2:b4:09:58:11:0d:9e:01:ef:2c:61:dd:b8:
         16:34:60:ff:a5:61:33:13:c0:ee:0b:1b:61:5e:4c:50:04:a8:
         a5:f9:71:e6:1e:3e:e3:34:13:86:8c:3d:ff:84:e7:d6:b4:e6:
         d8:5c:9d:ef:81:7d:21:34:86:62:30:ee:d5:e3:bf:3f:0c:c9:
         df:e0:c7:2b:e4:09:8b:18:03:e7:37:c0:0a:e9:41:db:9f:61:
         bf:fd:69:fa:37:88:b4:a0:dc:79:94:2c:13:ff:26:03:f3:39:
         d3:67:a4:90:9c:15:ff:44:82:5e:e7:b1:0c:3c:7b:0d:71:14:
         f7:31:09:06:e7:e8:31:b5:18:bc:c2:89:b1:2b:4c:98:b5:b5:
         3a:c6:f7:57:f5:f3:85:0b:c9:fe:9e:6b:8c:35:75:2b:52:58:
         0f:19:dd:9a:0e:86:d2:ff:39:a8:3a:a2:fd:c6:6d:9b:e8:bf:
         4e:c7:d5:f6:58:5f:49:3f:82:5c:b8:48:e6:93:1e:da:d5:6f:
         0a:74:f1:8c:fc:40:f7:52:12:cc:ce:9d:78:b2:6f:29:84:c9:
         43:0c:19:9b:b5:29:ea:21:c1:31:35:0a:c5:d1:ce:f4:ec:20:
         95:2e:87:f0:5e:28:95:e1
-----BEGIN CERTIFICATE-----
MIIFbjCCA1agAwIBAgIBAjANBgkqhkiG9w0BAQ0FADBmMQswCQYDVQQGEwJVUzEL
MAkGA1UECAwCQ0ExFTATBgNVBAoMDE9wZW4gdlN3aXRjaDERMA8GA1UECwwIc3dp
dGNoY2ExIDAeBgNVBAMMF3N3aXRjaGNhIENBIENlcnRpZmljYXRlMB4XDTIwMDMx
NjIwMTYwOVoXDTMwMDMxNDIwMTYwOVowaDELMAkGA1UEBhMCVVMxCzAJBgNVBAgM
AkNBMRUwEwYDVQQKDAxPcGVuIHZTd2l0Y2gxHzAdBgNVBAsMFk9wZW4gdlN3aXRj
aCBDZXJ0aWZpZXIxFDASBgNVBAMMC2NvbnRyb2xsZXJBMIICIjANBgkqhkiG9w0B
AQEFAAOCAg8AMIICCgKCAgEAzv8yYchKaDOtt4pSc/CEOgg9jdJ63pS+TiGCBm96
rcb6bVoT6uOQQlLqmQSVK4cEl+1blwNfoeb9a6ikC16LLCOdLFlDO2saMT51fjnW
vyh/ZdUEHarq7hEQuVaLDXGOW3k7R/8RLIDhxRw/qguyN0vwbdKY35JamCGV8aDw
7hwNxNEdBHEkwPGgC2Yx/4rZk3EQu2LZTDXJEXOhfcluwNlEvsLTok6+T9iOsQfJ
+rvKkSHilw/PbtjmvdQOjitm4Ityz5Wj4Q8YBOjf5Dbr0nXG1K+5Kw1iCgeGOpHB
7MUroGVYnjMERYE19FPO7w6uX5JwcuBlpYtWR8o+hUMLLSFZA/P+bERRDmgclh5f
aFjfwrxcXqfDgsvwR9Fz0TUQ3x6DUkPRgWbo0vEiDPf31ugjMcqdAyiod8/PrsQ5
199bekZTllJSnLsbPFGPY50/wvit9pLSZcbxqT7DQsQpFWefhW3yk+3QqpjwcIfQ
G1awI42z/PT0cIxmcWQyvfIh17/2kwbbQZxgNvbs/dMZMYyyWShhzpNyKw9hkApD
7FGnwCUcGoGmSAq2i9onboYksNSMd0m8yR5zvdXV2TZgebJwkAo/B8iZHCqqW5a5
gpY7/TaSE7UYVYLCReoHQkMG2wj4Rdj8o2N5uqH6NfKDrhVuHkRi5LO2/y8a8iTv
7r0CAwEAAaMlMCMwCQYDVR0TBAIwADAWBgNVHREEDzANggtjb250cm9sbGVyQTAN
BgkqhkiG9w0BAQ0FAAOCAgEAA6T4+h2KufEWLTsJ4yphl6wJfrqzNPrzwMYmsaQi
OW8QkJeI5xmIicRQ0XQNskx5gADhFuTGxR0uXpIeBGMnE8uIuLRrWfimJMYcb5AR
cAKK8eDPB0qsUuXBi9WOIVZusgOZm7xOC55FTI0K4MCVLdIeUuN4doC/esrprIJ1
ZQsL0Ec93o/xj4LG5DtNfXXWzPv6Kzqn6bT49reA4rarf4lxP2duGFbCWIKWhubK
FyHCeVmIvT8mKBXavezI/323004waOsYauqjkKOsh9Sd+ka2AjDl5LS3ZZsWQIYL
gt4uQKAbCnddD/7+9TJcVNeaaM7BtZj4OmqM1HStWLuVNGRZ+srDNxq2Z7WiT/78
A0YDkTLStAlYEQ2eAe8sYd24FjRg/6VhMxPA7gsbYV5MUASopflx5h4+4zQThow9
/4Tn1rTm2Fyd74F9ITSGYjDu1eO/PwzJ3+DHK+QJixgD5zfACulB259hv/1p+jeI
tKDceZQsE/8mA/M502ekkJwV/0SCXuexDDx7DXEU9zEJBufoMbUYvMKJsStMmLW1
Osb3V/XzhQvJ/p5rjDV1K1JYDxndmg6G0v85qDqi/cZtm+i/TsfV9lhfST+CXLhI
5pMe2tVvCnTxjPxA91ISzM6deLJvKYTJQwwZm7Up6iHBMTUKxdHO9OwglS6H8F4o
leE=
-----END CERTIFICATE-----
