Certificate Request:
    Data:
        Version: 1 (0x0)
        Subject: C = US, ST = CA, L = Palo Alto, O = Open vSwitch, OU = Open vSwitch Certifier, CN = controllerB
        Subject Public Key Info:
            Public Key Algorithm: rsaEncryption
                RSA Public-Key: (4096 bit)
                Modulus:
                    00:bf:6a:47:95:13:12:df:52:1e:63:33:91:6a:09:
                    ad:59:ff:62:f4:7a:65:23:4a:2e:d3:c5:44:18:0b:
                    13:e5:4a:30:e0:d6:d9:52:20:12:c3:b3:79:6e:17:
                    aa:e9:21:e6:9c:e6:a4:9b:59:a5:41:cf:20:bc:2b:
                    59:bc:be:59:93:dd:00:53:e3:46:ec:08:75:25:dd:
                    70:91:66:6e:4e:bf:1a:81:27:25:45:fc:23:87:d6:
                    1d:15:a2:f0:d4:b1:a2:ad:11:c8:c7:c4:19:5c:da:
                    d7:01:77:f1:d6:d2:70:c5:42:93:ce:23:70:ec:e5:
                    c4:89:01:e4:e8:39:72:bf:40:e8:20:8b:8d:33:62:
                    ca:5e:ed:5e:af:a3:bc:ee:e1:73:bb:2e:df:14:87:
                    39:4a:99:1d:65:89:fc:19:de:20:fb:43:c7:4a:9a:
                    57:d2:a6:ea:a1:7b:d5:17:91:e3:e6:81:9c:c2:39:
                    c2:d7:1b:fa:36:c8:59:df:79:2f:2d:df:46:91:a9:
                    19:da:94:99:e7:98:46:12:bf:1f:ce:aa:14:fa:1f:
                    c1:5b:72:25:28:f5:ac:ed:80:f1:82:81:3d:0e:ca:
                    14:fe:5b:b4:68:f2:e9:85:90:66:54:39:67:19:d2:
                    1e:82:ea:e8:57:84:f5:23:2d:27:2d:2f:93:7e:fc:
                    bb:83:8e:b1:04:b4:24:ab:f8:a9:d8:9f:d6:65:da:
                    69:7e:ec:f3:59:f9:bb:2d:cf:bc:7d:8e:df:74:82:
                    42:d2:d8:87:aa:04:19:fc:39:86:28:8a:e4:43:4b:
                    5c:de:40:3e:82:60:db:9c:d8:a3:3c:c9:39:f7:76:
                    73:a7:3e:cc:7c:3e:a3:95:75:34:39:24:f8:41:eb:
                    80:12:8f:c2:6d:29:23:bb:21:36:c4:9d:4a:c7:fd:
                    33:fa:e3:de:12:5c:5e:07:0c:e5:85:cc:aa:bd:77:
                    3d:48:e3:9e:36:82:45:47:58:00:7c:d1:4b:4c:84:
                    4a:ec:37:29:0f:3e:96:f1:f2:aa:2f:ae:d0:d0:46:
                    e2:26:c8:1b:48:8d:7e:17:a7:90:a2:2b:e8:45:de:
                    68:f1:5c:7e:04:6b:3b:fc:82:54:62:84:e0:45:e1:
                    22:30:4e:76:0b:a0:18:4d:c5:1e:59:5c:98:c5:59:
                    e1:0e:e1:a5:a0:9f:3d:2c:ec:49:35:33:f3:52:69:
                    b9:5c:61:bb:a0:42:52:57:bd:86:23:34:ca:26:a4:
                    a3:e2:dd:10:11:68:db:19:5b:91:42:7a:8d:3b:c3:
                    9d:7a:01:9a:e5:42:d0:89:d1:17:6b:dd:29:73:cd:
                    d1:cd:89:d9:40:69:81:ad:a9:f0:a7:6d:88:8c:c4:
                    e9:70:eb
                Exponent: 65537 (0x10001)
        Attributes:
        Requested Extensions:
            X509v3 Subject Alternative Name: 
                DNS:controllerB
    Signature Algorithm: sha256WithRSAEncryption
         73:15:9a:3c:fd:9a:ec:b6:7b:ad:cb:1b:c9:e1:07:54:3d:78:
         3b:5a:24:b0:84:b5:2c:f5:a5:1e:78:3b:96:6c:eb:e4:b5:cf:
         e9:25:6e:3f:0c:74:8e:76:0e:c6:65:98:0c:19:78:73:2a:be:
         09:ec:30:58:ba:d0:4b:eb:41:e0:ef:ac:53:7d:27:9f:b9:46:
         2f:fa:7c:34:36:d8:44:75:78:bf:23:52:57:18:b9:6e:bf:e4:
         f8:06:bb:0b:4a:d1:40:a1:e0:34:1d:a4:89:84:66:cc:90:85:
         b0:65:41:0a:1a:1a:a5:b0:dd:f3:b8:9b:b8:cd:a1:a2:ba:92:
         9c:d9:d0:f4:c1:35:72:bd:9c:b6:d9:02:66:ee:dd:e6:8a:34:
         7e:81:9c:84:b8:d7:7a:e5:f4:6a:8c:fe:42:8f:25:f3:d0:90:
         bd:10:ea:5b:1a:4f:2b:20:2e:50:7b:ce:39:76:4c:35:7f:df:
         9d:ae:bd:07:e9:8f:84:b9:fe:f9:26:3c:92:50:6e:ac:60:d9:
         88:99:f3:42:18:19:93:c6:bc:7d:40:0a:cf:b7:5e:87:7d:8d:
         20:8e:98:97:95:3f:8d:6f:01:e7:5f:40:5c:b7:49:0b:c0:72:
         11:e1:40:dc:db:1c:f6:70:2c:a6:65:4b:f8:0d:d2:be:01:94:
         86:db:d5:20:23:ef:af:cb:46:45:7a:a4:21:15:53:4a:86:75:
         e4:84:63:38:cf:9c:d6:86:19:b3:9a:cd:22:01:27:ad:70:3b:
         c6:f5:54:ee:a5:b8:0f:0e:ee:7c:4a:f7:f2:51:95:9e:8c:3c:
         19:c2:1b:3f:a5:4a:6e:d1:7d:77:f1:8b:a2:a5:52:eb:31:c4:
         21:d3:eb:24:12:ac:94:eb:41:2f:25:7f:65:f8:82:50:10:41:
         2d:f2:43:c4:27:29:76:e2:34:b0:a9:9c:99:42:80:ae:8c:5e:
         17:48:6d:f2:3b:13:7a:ad:77:ef:2f:5e:ca:35:11:61:f2:05:
         b0:8f:65:34:6f:59:f9:e5:3b:0f:fa:f9:19:c8:b4:62:75:7b:
         0c:66:d6:d3:a1:89:a3:2d:f0:c1:31:3b:91:d9:2c:60:ec:af:
         7e:04:ac:18:d3:d2:09:48:34:41:f1:11:b1:6a:62:55:4c:ee:
         73:42:1f:2d:4e:72:84:57:a9:b5:7b:b0:0c:92:31:cf:8f:5a:
         54:14:37:8a:d1:e8:33:f1:1a:82:6f:d3:0d:de:c2:34:8b:e9:
         05:99:14:d1:c0:6f:f6:a6:ef:16:5c:5c:c9:b1:c3:b4:36:f7:
         48:cb:75:25:1b:50:18:67:b5:f8:f2:eb:dd:8c:11:14:10:4a:
         6e:a7:9c:b6:94:66:f7:7e
-----BEGIN CERTIFICATE REQUEST-----
MIIE6jCCAtICAQAwfDELMAkGA1UEBhMCVVMxCzAJBgNVBAgMAkNBMRIwEAYDVQQH
DAlQYWxvIEFsdG8xFTATBgNVBAoMDE9wZW4gdlN3aXRjaDEfMB0GA1UECwwWT3Bl
biB2U3dpdGNoIENlcnRpZmllcjEUMBIGA1UEAwwLY29udHJvbGxlckIwggIiMA0G
CSqGSIb3DQEBAQUAA4ICDwAwggIKAoICAQC/akeVExLfUh5jM5FqCa1Z/2L0emUj
Si7TxUQYCxPlSjDg1tlSIBLDs3luF6rpIeac5qSbWaVBzyC8K1m8vlmT3QBT40bs
CHUl3XCRZm5OvxqBJyVF/COH1h0VovDUsaKtEcjHxBlc2tcBd/HW0nDFQpPOI3Ds
5cSJAeToOXK/QOggi40zYspe7V6vo7zu4XO7Lt8UhzlKmR1lifwZ3iD7Q8dKmlfS
puqhe9UXkePmgZzCOcLXG/o2yFnfeS8t30aRqRnalJnnmEYSvx/OqhT6H8FbciUo
9aztgPGCgT0OyhT+W7Ro8umFkGZUOWcZ0h6C6uhXhPUjLSctL5N+/LuDjrEEtCSr
+KnYn9Zl2ml+7PNZ+bstz7x9jt90gkLS2IeqBBn8OYYoiuRDS1zeQD6CYNuc2KM8
yTn3dnOnPsx8PqOVdTQ5JPhB64ASj8JtKSO7ITbEnUrH/TP6494SXF4HDOWFzKq9
dz1I4542gkVHWAB80UtMhErsNykPPpbx8qovrtDQRuImyBtIjX4Xp5CiK+hF3mjx
XH4Eazv8glRihOBF4SIwTnYLoBhNxR5ZXJjFWeEO4aWgnz0s7Ek1M/NSablcYbug
QlJXvYYjNMompKPi3RARaNsZW5FCeo07w516AZrlQtCJ0Rdr3SlzzdHNidlAaYGt
qfCnbYiMxOlw6wIDAQABoCkwJwYJKoZIhvcNAQkOMRowGDAWBgNVHREEDzANggtj
b250cm9sbGVyQjANBgkqhkiG9w0BAQsFAAOCAgEAcxWaPP2a7LZ7rcsbyeEHVD14
O1oksIS1LPWlHng7lmzr5LXP6SVuPwx0jnYOxmWYDBl4cyq+CewwWLrQS+tB4O+s
U30nn7lGL/p8NDbYRHV4vyNSVxi5br/k+Aa7C0rRQKHgNB2kiYRmzJCFsGVBChoa
pbDd87ibuM2horqSnNnQ9ME1cr2cttkCZu7d5oo0foGchLjXeuX0aoz+Qo8l89CQ
vRDqWxpPKyAuUHvOOXZMNX/fna69B+mPhLn++SY8klBurGDZiJnzQhgZk8a8fUAK
z7deh32NII6Yl5U/jW8B519AXLdJC8ByEeFA3Nsc9nAspmVL+A3SvgGUhtvVICPv
r8tGRXqkIRVTSoZ15IRjOM+c1oYZs5rNIgEnrXA7xvVU7qW4Dw7ufEr38lGVnow8
GcIbP6VKbtF9d/GLoqVS6zHEIdPrJBKslOtBLyV/ZfiCUBBBLfJDxCcpduI0sKmc
mUKAroxeF0ht8jsTeq137y9eyjURYfIFsI9lNG9Z+eU7D/r5Gci0YnV7DGbW06GJ
oy3wwTE7kdksYOyvfgSsGNPSCUg0QfERsWpiVUzuc0IfLU5yhFeptXuwDJIxz49a
VBQ3itHoM/Eagm/TDd7CNIvpBZkU0cBv9qbvFlxcybHDtDb3SMt1JRtQGGe1+PLr
3YwRFBBKbqectpRm934=
-----END CERTIFICATE REQUEST-----
