Certificate:
    Data:
        Version: 3 (0x2)
        Serial Number: 3 (0x3)
        Signature Algorithm: sha512WithRSAEncryption
        Issuer: C=US, ST=CA, O=Open vSwitch, OU=switchca, CN=switchca CA Certificate
        Validity
            Not Before: Mar 16 20:17:53 2020 GMT
            Not After : Mar 14 20:17:53 2030 GMT
        Subject: C=US, ST=CA, O=Open vSwitch, OU=Open vSwitch Certifier, CN=controllerB
        Subject Public Key Info:
            Public Key Algorithm: rsaEncryption
                RSA Public-Key: (4096 bit)
                Modulus:
                    00:bf:6a:47:95:13:12:df:52:1e:63:33:91:6a:09:
                    ad:59:ff:62:f4:7a:65:23:4a:2e:d3:c5:44:18:0b:
                    13:e5:4a:30:e0:d6:d9:52:20:12:c3:b3:79:6e:17:
                    aa:e9:21:e6:9c:e6:a4:9b:59:a5:41:cf:20:bc:2b:
                    59:bc:be:59:93:dd:00:53:e3:46:ec:08:75:25:dd:
                    70:91:66:6e:4e:bf:1a:81:27:25:45:fc:23:87:d6:
                    1d:15:a2:f0:d4:b1:a2:ad:11:c8:c7:c4:19:5c:da:
                    d7:01:77:f1:d6:d2:70:c5:42:93:ce:23:70:ec:e5:
                    c4:89:01:e4:e8:39:72:bf:40:e8:20:8b:8d:33:62:
                    ca:5e:ed:5e:af:a3:bc:ee:e1:73:bb:2e:df:14:87:
                    39:4a:99:1d:65:89:fc:19:de:20:fb:43:c7:4a:9a:
                    57:d2:a6:ea:a1:7b:d5:17:91:e3:e6:81:9c:c2:39:
                    c2:d7:1b:fa:36:c8:59:df:79:2f:2d:df:46:91:a9:
                    19:da:94:99:e7:98:46:12:bf:1f:ce:aa:14:fa:1f:
                    c1:5b:72:25:28:f5:ac:ed:80:f1:82:81:3d:0e:ca:
                    14:fe:5b:b4:68:f2:e9:85:90:66:54:39:67:19:d2:
                    1e:82:ea:e8:57:84:f5:23:2d:27:2d:2f:93:7e:fc:
                    bb:83:8e:b1:04:b4:24:ab:f8:a9:d8:9f:d6:65:da:
                    69:7e:ec:f3:59:f9:bb:2d:cf:bc:7d:8e:df:74:82:
                    42:d2:d8:87:aa:04:19:fc:39:86:28:8a:e4:43:4b:
                    5c:de:40:3e:82:60:db:9c:d8:a3:3c:c9:39:f7:76:
                    73:a7:3e:cc:7c:3e:a3:95:75:34:39:24:f8:41:eb:
                    80:12:8f:c2:6d:29:23:bb:21:36:c4:9d:4a:c7:fd:
                    33:fa:e3:de:12:5c:5e:07:0c:e5:85:cc:aa:bd:77:
                    3d:48:e3:9e:36:82:45:47:58:00:7c:d1:4b:4c:84:
                    4a:ec:37:29:0f:3e:96:f1:f2:aa:2f:ae:d0:d0:46:
                    e2:26:c8:1b:48:8d:7e:17:a7:90:a2:2b:e8:45:de:
                    68:f1:5c:7e:04:6b:3b:fc:82:54:62:84:e0:45:e1:
                    22:30:4e:76:0b:a0:18:4d:c5:1e:59:5c:98:c5:59:
                    e1:0e:e1:a5:a0:9f:3d:2c:ec:49:35:33:f3:52:69:
                    b9:5c:61:bb:a0:42:52:57:bd:86:23:34:ca:26:a4:
                    a3:e2:dd:10:11:68:db:19:5b:91:42:7a:8d:3b:c3:
                    9d:7a:01:9a:e5:42:d0:89:d1:17:6b:dd:29:73:cd:
                    d1:cd:89:d9:40:69:81:ad:a9:f0:a7:6d:88:8c:c4:
                    e9:70:eb
                Exponent: 65537 (0x10001)
        X509v3 extensions:
            X509v3 Basic Constraints: 
                CA:FALSE
            X509v3 Subject Alternative Name: 
                DNS:controllerB
    Signature Algorithm: sha512WithRSAEncryption
         3c:3e:08:60:1d:27:86:f6:5c:f4:70:f5:de:a6:c0:1d:23:59:
         f4:42:98:19:54:5b:17:c4:e7:83:e4:ed:8c:fa:cc:b8:f4:74:
         2b:db:8e:d0:2d:73:cf:b9:40:a8:2e:0c:e3:10:f8:c8:73:8e:
         a1:74:51:d8:b7:0e:16:1b:a3:56:da:fe:06:bc:9b:63:5f:ae:
         d5:e4:ac:cd:11:2b:a1:70:69:7c:83:3f:26:40:08:4f:df:3b:
         4a:59:dd:66:14:9a:29:28:98:91:b6:02:53:80:5d:51:c1:c4:
         0d:b7:96:0b:61:b2:42:07:53:9a:72:0b:1d:b8:0d:06:64:8a:
         41:6c:cb:1a:88:6a:93:87:8f:21:fa:da:fc:c2:3e:c4:4d:5c:
         3c:e4:62:44:fb:1e:27:3c:b5:ec:69:27:f7:f1:f3:06:fc:bb:
         84:b9:b6:a7:a4:30:6f:ec:bb:a6:8a:de:77:b9:5f:2a:5d:6b:
         6c:ce:9a:c1:21:d6:d4:87:e3:0d:66:70:e6:19:a9:07:8f:69:
         03:6a:18:05:55:c9:90:d6:ed:7f:66:9f:a8:f1:3e:49:66:3c:
         b0:ac:a1:b8:03:55:41:91:ad:12:27:0b:a8:97:62:b4:2d:13:
         ea:c3:af:25:35:86:d3:63:93:01:0b:12:72:57:5d:d0:11:32:
         cd:e9:2d:69:6c:dc:1b:7e:f3:28:90:48:2a:23:5e:6c:dc:85:
         c5:c5:b0:b2:c2:6b:24:1c:58:23:8a:c3:98:0b:7c:33:d6:89:
         39:36:c6:cc:96:0d:c7:ac:6d:16:08:5c:9c:60:01:a8:13:1a:
         a9:05:a7:0a:75:17:cd:0f:37:c0:e1:d8:1c:06:0c:cf:a1:e3:
         5b:75:72:0a:c3:d2:0f:08:c9:e9:ad:45:0a:4b:04:1f:04:4b:
         38:81:81:d0:5d:f5:ad:a0:5f:16:b9:e7:8e:85:2c:40:c6:96:
         f6:66:89:ed:e2:a0:cb:4d:d6:d8:f6:f4:0f:6c:68:61:c3:de:
         5c:11:a1:56:97:42:ce:2d:d2:88:81:3e:8a:eb:c6:c4:30:a0:
         29:0c:5a:3d:29:25:6c:ad:83:f1:33:c4:10:df:54:1d:fa:96:
         a0:67:7c:0a:df:32:33:0b:ea:2d:58:fd:68:e7:62:ba:10:2c:
         d8:11:da:dc:2a:bc:5e:c6:24:c1:9d:b4:09:b4:78:ea:56:00:
         cd:6a:dd:97:a9:58:6e:f8:91:ea:d9:32:09:29:9d:49:a4:bb:
         36:e2:6b:4a:22:77:0c:af:3a:8e:eb:33:0e:f9:65:92:05:97:
         30:74:80:af:1e:04:00:57:d8:01:eb:a3:60:70:06:77:4f:e0:
         4a:a4:0d:dc:38:78:a3:6e
-----BEGIN CERTIFICATE-----
MIIFbjCCA1agAwIBAgIBAzANBgkqhkiG9w0BAQ0FADBmMQswCQYDVQQGEwJVUzEL
MAkGA1UECAwCQ0ExFTATBgNVBAoMDE9wZW4gdlN3aXRjaDERMA8GA1UECwwIc3dp
dGNoY2ExIDAeBgNVBAMMF3N3aXRjaGNhIENBIENlcnRpZmljYXRlMB4XDTIwMDMx
NjIwMTc1M1oXDTMwMDMxNDIwMTc1M1owaDELMAkGA1UEBhMCVVMxCzAJBgNVBAgM
AkNBMRUwEwYDVQQKDAxPcGVuIHZTd2l0Y2gxHzAdBgNVBAsMFk9wZW4gdlN3aXRj
aCBDZXJ0aWZpZXIxFDASBgNVBAMMC2NvbnRyb2xsZXJCMIICIjANBgkqhkiG9w0B
AQEFAAOCAg8AMIICCgKCAgEAv2pHlRMS31IeYzORagmtWf9i9HplI0ou08VEGAsT
5Uow4NbZUiASw7N5bheq6SHmnOakm1mlQc8gvCtZvL5Zk90AU+NG7Ah1Jd1wkWZu
Tr8agSclRfwjh9YdFaLw1LGirRHIx8QZXNrXAXfx1tJwxUKTziNw7OXEiQHk6Dly
v0DoIIuNM2LKXu1er6O87uFzuy7fFIc5SpkdZYn8Gd4g+0PHSppX0qbqoXvVF5Hj
5oGcwjnC1xv6NshZ33kvLd9GkakZ2pSZ55hGEr8fzqoU+h/BW3IlKPWs7YDxgoE9
DsoU/lu0aPLphZBmVDlnGdIeguroV4T1Iy0nLS+Tfvy7g46xBLQkq/ip2J/WZdpp
fuzzWfm7Lc+8fY7fdIJC0tiHqgQZ/DmGKIrkQ0tc3kA+gmDbnNijPMk593Zzpz7M
fD6jlXU0OST4QeuAEo/CbSkjuyE2xJ1Kx/0z+uPeElxeBwzlhcyqvXc9SOOeNoJF
R1gAfNFLTIRK7DcpDz6W8fKqL67Q0EbiJsgbSI1+F6eQoivoRd5o8Vx+BGs7/IJU
YoTgReEiME52C6AYTcUeWVyYxVnhDuGloJ89LOxJNTPzUmm5XGG7oEJSV72GIzTK
JqSj4t0QEWjbGVuRQnqNO8OdegGa5ULQidEXa90pc83RzYnZQGmBranwp22IjMTp
cOsCAwEAAaMlMCMwCQYDVR0TBAIwADAWBgNVHREEDzANggtjb250cm9sbGVyQjAN
BgkqhkiG9w0BAQ0FAAOCAgEAPD4IYB0nhvZc9HD13qbAHSNZ9EKYGVRbF8Tng+Tt
jPrMuPR0K9uO0C1zz7lAqC4M4xD4yHOOoXRR2LcOFhujVtr+BrybY1+u1eSszREr
oXBpfIM/JkAIT987SlndZhSaKSiYkbYCU4BdUcHEDbeWC2GyQgdTmnILHbgNBmSK
QWzLGohqk4ePIfra/MI+xE1cPORiRPseJzy17Gkn9/HzBvy7hLm2p6Qwb+y7pore
d7lfKl1rbM6awSHW1IfjDWZw5hmpB49pA2oYBVXJkNbtf2afqPE+SWY8sKyhuANV
QZGtEicLqJditC0T6sOvJTWG02OTAQsScldd0BEyzektaWzcG37zKJBIKiNebNyF
xcWwssJrJBxYI4rDmAt8M9aJOTbGzJYNx6xtFghcnGABqBMaqQWnCnUXzQ83wOHY
HAYMz6HjW3VyCsPSDwjJ6a1FCksEHwRLOIGB0F31raBfFrnnjoUsQMaW9maJ7eKg
y03W2Pb0D2xoYcPeXBGhVpdCzi3SiIE+iuvGxDCgKQxaPSklbK2D8TPEEN9UHfqW
oGd8Ct8yMwvqLVj9aOdiuhAs2BHa3Cq8XsYkwZ20CbR46lYAzWrdl6lYbviR6tky
CSmdSaS7NuJrSiJ3DK86juszDvllkgWXMHSArx4EAFfYAeujYHAGd0/gSqQN3Dh4
o24=
-----END CERTIFICATE-----
