Certificate:
    Data:
        Version: 3 (0x2)
        Serial Number: 4 (0x4)
        Signature Algorithm: sha512WithRSAEncryption
        Issuer: C=US, ST=CA, O=Open vSwitch, OU=switchca, CN=switchca CA Certificate
        Validity
            Not Before: Mar 16 20:18:30 2020 GMT
            Not After : Mar 14 20:18:30 2030 GMT
        Subject: C=US, ST=CA, O=Open vSwitch, OU=Open vSwitch Certifier, CN=controllerC
        Subject Public Key Info:
            Public Key Algorithm: rsaEncryption
                RSA Public-Key: (4096 bit)
                Modulus:
                    00:a0:50:45:b6:ce:1e:f8:1d:56:54:a9:76:18:62:
                    9b:0c:71:05:45:32:d1:85:3d:57:1b:17:e7:b1:93:
                    35:27:0d:db:1b:7b:6b:d7:62:f8:d7:e5:5c:52:6b:
                    42:a1:ef:66:aa:27:ce:fa:61:a3:8d:86:e3:6d:14:
                    96:20:7c:0f:2b:d8:f6:13:e7:d2:20:81:3b:65:50:
                    82:ff:d8:fa:52:99:5d:a3:23:33:66:d4:75:c6:4a:
                    d5:cf:54:41:bc:dc:22:ad:c3:fe:e7:b4:a6:44:84:
                    0d:48:42:b6:c9:97:1c:6f:41:6c:24:17:b5:de:f4:
                    a5:46:21:8f:e0:d2:28:58:c4:1b:79:bb:48:98:94:
                    35:71:b0:48:63:40:e5:f2:ce:14:fc:84:90:c7:93:
                    a3:f0:0c:b2:d2:4b:57:86:b6:63:8d:92:4e:fc:9f:
                    d7:ac:22:90:0a:81:af:3a:e7:08:f9:35:e4:e3:33:
                    e8:a1:55:7e:b6:5f:26:7a:c7:eb:27:9b:26:09:82:
                    c8:5e:b5:cc:59:5f:1b:df:3f:f4:98:bc:f2:a8:f4:
                    d1:1a:af:c8:08:28:78:ff:d0:91:3a:aa:83:3a:f9:
                    33:ac:e9:46:45:4b:2c:22:32:4f:1d:51:fe:14:95:
                    c1:8e:de:86:99:28:f9:b6:09:24:7e:1d:4d:fa:48:
                    eb:32:36:67:d2:db:71:16:35:08:2d:3d:94:f0:5f:
                    99:67:85:56:53:5f:ad:8c:f6:7f:ca:cf:59:a2:63:
                    b1:4a:6c:9d:3d:7b:80:c5:26:6a:8f:06:ea:95:a2:
                    39:d8:32:e8:07:b1:63:0e:7c:01:ba:03:24:df:ed:
                    5c:72:5a:f7:9e:d2:39:9c:e2:79:f4:1c:ff:86:b1:
                    a2:4f:53:4c:27:c2:19:16:6d:ed:f8:75:b1:1c:a6:
                    85:97:2a:f1:6e:01:32:7e:8e:ff:69:b9:28:47:88:
                    85:35:d2:a2:0e:72:f8:91:a0:7f:d3:1e:92:06:df:
                    80:3f:8b:df:90:35:e5:d1:35:05:a7:de:ed:d1:d4:
                    62:6e:8a:01:33:32:99:89:cd:46:73:99:53:52:58:
                    60:1c:77:3c:b5:96:ea:ef:da:da:ad:da:b4:37:d4:
                    5a:f7:fd:f1:56:8d:d3:d1:cb:8f:f2:71:f8:eb:e4:
                    e6:e6:7d:6c:ba:b0:9d:c5:51:42:d9:06:87:e9:76:
                    d7:3e:c2:a8:09:fb:8a:40:d5:bf:7a:00:b8:5d:24:
                    7f:cb:c6:fd:21:99:89:cd:f8:e1:f4:e0:b3:2c:ec:
                    be:d3:2a:c0:78:c2:48:89:f8:c9:d8:6a:da:4e:ca:
                    14:24:02:80:bf:53:e6:54:a9:5e:81:c5:5e:b0:55:
                    12:5f:21
                Exponent: 65537 (0x10001)
        X509v3 extensions:
            X509v3 Basic Constraints: 
                CA:FALSE
            X509v3 Subject Alternative Name: 
                DNS:controllerC
    Signature Algorithm: sha512WithRSAEncryption
         0d:41:ac:fa:69:d3:db:96:1a:6a:23:ee:55:3e:5e:78:f7:03:
         2a:f0:cb:c4:34:cb:2f:48:2b:81:97:b6:d1:63:27:f7:1f:cf:
         74:c1:27:45:67:45:5b:bb:28:75:fe:30:4e:4f:2f:b9:56:62:
         d0:ec:49:d1:16:ee:0a:56:bb:38:52:33:b0:40:ae:f8:35:e2:
         a0:9b:34:62:c6:ba:da:ae:54:3b:f3:fa:c4:07:4c:dd:aa:5f:
         28:47:63:eb:9d:25:19:e9:8e:cc:2c:4e:39:e6:87:fa:f3:fd:
         b7:e4:7c:3d:4f:8f:94:de:d1:24:02:0f:f4:ce:1d:39:47:a8:
         10:45:8e:51:1e:bb:79:fb:71:d0:f7:b2:ad:1a:d2:32:77:1b:
         7c:01:1e:83:91:80:44:21:b8:48:24:08:ff:d0:82:bf:1b:55:
         e0:22:41:5f:28:42:f0:91:31:58:21:ce:03:ed:19:33:ab:fd:
         6b:86:88:f5:67:c4:f7:54:75:4a:21:ab:29:97:f1:88:d4:62:
         52:e3:70:c6:a9:f5:8c:84:ec:af:00:0b:15:91:89:e3:d0:d6:
         d3:2f:bf:3a:c8:5d:dc:b3:85:5e:8b:48:1a:53:3d:b2:41:0b:
         f6:50:0d:90:33:03:03:af:e7:1f:21:aa:ec:75:43:a1:7e:f8:
         36:80:64:a7:21:9c:f1:0b:24:0d:92:6f:3e:1f:51:6e:e5:bc:
         35:ba:4e:b4:44:3c:44:43:6b:2c:a8:7d:1a:54:97:df:1d:d5:
         a8:d6:b6:c8:7d:8e:7d:ab:99:b5:97:ca:da:2d:70:19:7a:c1:
         4b:13:63:ba:5c:ec:ce:bd:ec:5a:f7:38:8d:42:31:38:12:71:
         89:8f:82:8c:90:67:3b:f0:17:df:92:44:fb:82:82:03:52:d1:
         48:61:ba:f7:d1:19:11:f4:6e:0b:f0:b5:ab:8c:2c:6c:72:e5:
         67:ca:3f:71:0c:08:d9:4e:78:34:32:b8:3b:33:39:5e:7c:6e:
         66:c0:cc:5d:63:cd:11:b1:0b:1b:25:e7:88:18:35:db:42:4f:
         62:51:24:da:a3:33:7f:35:30:83:67:b1:36:33:0b:d9:ca:82:
         6b:37:86:0e:b4:43:40:84:a0:3e:dc:6a:29:4d:73:a1:fe:d5:
         d8:0c:06:2f:85:de:62:ef:64:7d:f3:96:fe:03:24:f2:8c:da:
         3d:6e:f1:be:f2:83:5a:ac:e8:fb:41:5a:fa:d8:d6:a5:a2:17:
         0b:44:35:60:56:a9:09:2d:cf:2d:d6:47:1f:46:4c:6f:ca:59:
         c3:c4:66:43:d6:5e:2c:1f:b8:46:fb:87:71:0c:c8:b6:db:80:
         a2:f5:5d:58:91:8e:f6:e7
-----BEGIN CERTIFICATE-----
MIIFbjCCA1agAwIBAgIBBDANBgkqhkiG9w0BAQ0FADBmMQswCQYDVQQGEwJVUzEL
MAkGA1UECAwCQ0ExFTATBgNVBAoMDE9wZW4gdlN3aXRjaDERMA8GA1UECwwIc3dp
dGNoY2ExIDAeBgNVBAMMF3N3aXRjaGNhIENBIENlcnRpZmljYXRlMB4XDTIwMDMx
NjIwMTgzMFoXDTMwMDMxNDIwMTgzMFowaDELMAkGA1UEBhMCVVMxCzAJBgNVBAgM
AkNBMRUwEwYDVQQKDAxPcGVuIHZTd2l0Y2gxHzAdBgNVBAsMFk9wZW4gdlN3aXRj
aCBDZXJ0aWZpZXIxFDASBgNVBAMMC2NvbnRyb2xsZXJDMIICIjANBgkqhkiG9w0B
AQEFAAOCAg8AMIICCgKCAgEAoFBFts4e+B1WVKl2GGKbDHEFRTLRhT1XGxfnsZM1
Jw3bG3tr12L41+VcUmtCoe9mqifO+mGjjYbjbRSWIHwPK9j2E+fSIIE7ZVCC/9j6
UpldoyMzZtR1xkrVz1RBvNwircP+57SmRIQNSEK2yZccb0FsJBe13vSlRiGP4NIo
WMQbebtImJQ1cbBIY0Dl8s4U/ISQx5Oj8Ayy0ktXhrZjjZJO/J/XrCKQCoGvOucI
+TXk4zPooVV+tl8mesfrJ5smCYLIXrXMWV8b3z/0mLzyqPTRGq/ICCh4/9CROqqD
OvkzrOlGRUssIjJPHVH+FJXBjt6GmSj5tgkkfh1N+kjrMjZn0ttxFjUILT2U8F+Z
Z4VWU1+tjPZ/ys9ZomOxSmydPXuAxSZqjwbqlaI52DLoB7FjDnwBugMk3+1cclr3
ntI5nOJ59Bz/hrGiT1NMJ8IZFm3t+HWxHKaFlyrxbgEyfo7/abkoR4iFNdKiDnL4
kaB/0x6SBt+AP4vfkDXl0TUFp97t0dRibooBMzKZic1Gc5lTUlhgHHc8tZbq79ra
rdq0N9Ra9/3xVo3T0cuP8nH46+Tm5n1surCdxVFC2QaH6XbXPsKoCfuKQNW/egC4
XSR/y8b9IZmJzfjh9OCzLOy+0yrAeMJIifjJ2GraTsoUJAKAv1PmVKlegcVesFUS
XyECAwEAAaMlMCMwCQYDVR0TBAIwADAWBgNVHREEDzANggtjb250cm9sbGVyQzAN
BgkqhkiG9w0BAQ0FAAOCAgEADUGs+mnT25YaaiPuVT5eePcDKvDLxDTLL0grgZe2
0WMn9x/PdMEnRWdFW7sodf4wTk8vuVZi0OxJ0RbuCla7OFIzsECu+DXioJs0Ysa6
2q5UO/P6xAdM3apfKEdj650lGemOzCxOOeaH+vP9t+R8PU+PlN7RJAIP9M4dOUeo
EEWOUR67eftx0PeyrRrSMncbfAEeg5GARCG4SCQI/9CCvxtV4CJBXyhC8JExWCHO
A+0ZM6v9a4aI9WfE91R1SiGrKZfxiNRiUuNwxqn1jITsrwALFZGJ49DW0y+/Oshd
3LOFXotIGlM9skEL9lANkDMDA6/nHyGq7HVDoX74NoBkpyGc8QskDZJvPh9RbuW8
NbpOtEQ8RENrLKh9GlSX3x3VqNa2yH2OfauZtZfK2i1wGXrBSxNjulzszr3sWvc4
jUIxOBJxiY+CjJBnO/AX35JE+4KCA1LRSGG699EZEfRuC/C1q4wsbHLlZ8o/cQwI
2U54NDK4OzM5XnxuZsDMXWPNEbELGyXniBg120JPYlEk2qMzfzUwg2exNjML2cqC
azeGDrRDQISgPtxqKU1zof7V2AwGL4XeYu9kffOW/gMk8ozaPW7xvvKDWqzo+0Fa
+tjWpaIXC0Q1YFapCS3PLdZHH0ZMb8pZw8RmQ9ZeLB+4RvuHcQzIttuAovVdWJGO
9uc=
-----END CERTIFICATE-----
