Certificate Request:
    Data:
        Version: 1 (0x0)
        Subject: C = US, ST = CA, L = Palo Alto, O = Open vSwitch, OU = Open vSwitch Certifier, CN = controllerC
        Subject Public Key Info:
            Public Key Algorithm: rsaEncryption
                RSA Public-Key: (4096 bit)
                Modulus:
                    00:a0:50:45:b6:ce:1e:f8:1d:56:54:a9:76:18:62:
                    9b:0c:71:05:45:32:d1:85:3d:57:1b:17:e7:b1:93:
                    35:27:0d:db:1b:7b:6b:d7:62:f8:d7:e5:5c:52:6b:
                    42:a1:ef:66:aa:27:ce:fa:61:a3:8d:86:e3:6d:14:
                    96:20:7c:0f:2b:d8:f6:13:e7:d2:20:81:3b:65:50:
                    82:ff:d8:fa:52:99:5d:a3:23:33:66:d4:75:c6:4a:
                    d5:cf:54:41:bc:dc:22:ad:c3:fe:e7:b4:a6:44:84:
                    0d:48:42:b6:c9:97:1c:6f:41:6c:24:17:b5:de:f4:
                    a5:46:21:8f:e0:d2:28:58:c4:1b:79:bb:48:98:94:
                    35:71:b0:48:63:40:e5:f2:ce:14:fc:84:90:c7:93:
                    a3:f0:0c:b2:d2:4b:57:86:b6:63:8d:92:4e:fc:9f:
                    d7:ac:22:90:0a:81:af:3a:e7:08:f9:35:e4:e3:33:
                    e8:a1:55:7e:b6:5f:26:7a:c7:eb:27:9b:26:09:82:
                    c8:5e:b5:cc:59:5f:1b:df:3f:f4:98:bc:f2:a8:f4:
                    d1:1a:af:c8:08:28:78:ff:d0:91:3a:aa:83:3a:f9:
                    33:ac:e9:46:45:4b:2c:22:32:4f:1d:51:fe:14:95:
                    c1:8e:de:86:99:28:f9:b6:09:24:7e:1d:4d:fa:48:
                    eb:32:36:67:d2:db:71:16:35:08:2d:3d:94:f0:5f:
                    99:67:85:56:53:5f:ad:8c:f6:7f:ca:cf:59:a2:63:
                    b1:4a:6c:9d:3d:7b:80:c5:26:6a:8f:06:ea:95:a2:
                    39:d8:32:e8:07:b1:63:0e:7c:01:ba:03:24:df:ed:
                    5c:72:5a:f7:9e:d2:39:9c:e2:79:f4:1c:ff:86:b1:
                    a2:4f:53:4c:27:c2:19:16:6d:ed:f8:75:b1:1c:a6:
                    85:97:2a:f1:6e:01:32:7e:8e:ff:69:b9:28:47:88:
                    85:35:d2:a2:0e:72:f8:91:a0:7f:d3:1e:92:06:df:
                    80:3f:8b:df:90:35:e5:d1:35:05:a7:de:ed:d1:d4:
                    62:6e:8a:01:33:32:99:89:cd:46:73:99:53:52:58:
                    60:1c:77:3c:b5:96:ea:ef:da:da:ad:da:b4:37:d4:
                    5a:f7:fd:f1:56:8d:d3:d1:cb:8f:f2:71:f8:eb:e4:
                    e6:e6:7d:6c:ba:b0:9d:c5:51:42:d9:06:87:e9:76:
                    d7:3e:c2:a8:09:fb:8a:40:d5:bf:7a:00:b8:5d:24:
                    7f:cb:c6:fd:21:99:89:cd:f8:e1:f4:e0:b3:2c:ec:
                    be:d3:2a:c0:78:c2:48:89:f8:c9:d8:6a:da:4e:ca:
                    14:24:02:80:bf:53:e6:54:a9:5e:81:c5:5e:b0:55:
                    12:5f:21
                Exponent: 65537 (0x10001)
        Attributes:
        Requested Extensions:
            X509v3 Subject Alternative Name: 
                DNS:controllerC
    Signature Algorithm: sha256WithRSAEncryption
         53:92:30:39:ed:b4:ec:67:6f:89:35:12:fc:ca:f7:45:16:5c:
         fe:be:03:c3:c6:3a:71:86:9b:2f:6a:02:53:91:16:21:26:c5:
         e3:1e:ed:64:cd:11:e4:68:1e:bf:09:fd:31:e9:65:c1:45:50:
         26:91:5a:47:a5:b5:5e:18:18:4f:2b:fb:58:19:0b:7b:61:28:
         41:b3:ad:07:55:2e:3b:28:48:f5:0a:74:5c:df:d6:d9:62:29:
         71:a8:6d:b0:cb:31:e8:19:11:d5:51:fc:62:8f:47:13:9d:45:
         3d:5a:b4:c7:4b:de:e6:69:0a:a5:a4:6f:8d:5d:55:33:a8:d1:
         7f:5c:16:43:28:b1:79:71:f6:43:3e:53:a7:54:9b:8e:a2:08:
         fd:fd:eb:d6:58:f5:2b:c1:0c:39:21:32:a1:9d:0c:5c:e8:1a:
         62:f9:e0:7d:d7:a3:7c:d1:48:48:04:c5:cb:2f:09:b3:08:06:
         68:33:6b:3f:1f:47:88:df:58:88:35:71:be:26:de:14:61:da:
         b7:15:12:91:e0:b2:f8:12:8f:63:63:ba:c7:d0:84:4b:04:f4:
         0c:da:7f:15:e9:94:7f:a4:93:46:fc:2a:04:cb:65:31:37:34:
         b2:20:b0:cb:8c:22:ab:1a:a3:11:14:76:18:30:4c:de:56:21:
         c8:3d:f7:19:89:e8:93:09:ce:d3:98:81:29:e8:c1:93:0a:34:
         72:f6:e3:d7:cb:63:15:dd:e6:fe:41:4e:65:33:70:28:f0:1e:
         2b:35:bd:1f:14:9b:ff:5b:56:d4:0a:39:b2:2b:0e:2a:52:d2:
         2d:f3:11:3d:d4:7d:bf:2f:f8:9c:b9:57:7f:12:32:79:97:8e:
         43:44:cc:93:bc:68:c3:3b:5a:f8:2d:c2:89:82:49:82:ed:96:
         fa:ff:b2:9e:72:be:70:39:5c:f2:37:25:d2:31:eb:4b:d5:22:
         5e:44:96:d7:cc:75:d4:74:b5:87:3e:84:c2:2b:33:34:52:09:
         f1:71:c7:2d:f8:5e:8f:c8:50:78:74:91:39:66:cb:8f:e5:80:
         a6:b4:8d:e5:62:c7:37:fc:23:a1:51:4a:0c:12:4d:60:c0:ec:
         77:40:de:8a:18:76:25:37:ca:b3:fe:ca:d4:63:ed:a3:eb:47:
         0d:54:12:09:13:2c:67:c8:c8:fd:d9:1a:a2:31:73:d9:e1:c9:
         15:7b:43:7b:f9:eb:cb:ce:71:fe:c8:6e:54:e4:e9:70:f6:d7:
         e2:01:d8:fb:72:28:e3:55:8a:8a:97:3a:26:b8:c4:98:6a:e2:
         fe:79:e3:f2:0c:e7:a5:cc:93:a7:bb:2f:f0:cf:00:f6:b5:2e:
         50:b4:5f:73:db:a2:7e:b9
-----BEGIN CERTIFICATE REQUEST-----
MIIE6jCCAtICAQAwfDELMAkGA1UEBhMCVVMxCzAJBgNVBAgMAkNBMRIwEAYDVQQH
DAlQYWxvIEFsdG8xFTATBgNVBAoMDE9wZW4gdlN3aXRjaDEfMB0GA1UECwwWT3Bl
biB2U3dpdGNoIENlcnRpZmllcjEUMBIGA1UEAwwLY29udHJvbGxlckMwggIiMA0G
CSqGSIb3DQEBAQUAA4ICDwAwggIKAoICAQCgUEW2zh74HVZUqXYYYpsMcQVFMtGF
PVcbF+exkzUnDdsbe2vXYvjX5VxSa0Kh72aqJ876YaONhuNtFJYgfA8r2PYT59Ig
gTtlUIL/2PpSmV2jIzNm1HXGStXPVEG83CKtw/7ntKZEhA1IQrbJlxxvQWwkF7Xe
9KVGIY/g0ihYxBt5u0iYlDVxsEhjQOXyzhT8hJDHk6PwDLLSS1eGtmONkk78n9es
IpAKga865wj5NeTjM+ihVX62XyZ6x+snmyYJgshetcxZXxvfP/SYvPKo9NEar8gI
KHj/0JE6qoM6+TOs6UZFSywiMk8dUf4UlcGO3oaZKPm2CSR+HU36SOsyNmfS23EW
NQgtPZTwX5lnhVZTX62M9n/Kz1miY7FKbJ09e4DFJmqPBuqVojnYMugHsWMOfAG6
AyTf7VxyWvee0jmc4nn0HP+GsaJPU0wnwhkWbe34dbEcpoWXKvFuATJ+jv9puShH
iIU10qIOcviRoH/THpIG34A/i9+QNeXRNQWn3u3R1GJuigEzMpmJzUZzmVNSWGAc
dzy1lurv2tqt2rQ31Fr3/fFWjdPRy4/ycfjr5ObmfWy6sJ3FUULZBofpdtc+wqgJ
+4pA1b96ALhdJH/Lxv0hmYnN+OH04LMs7L7TKsB4wkiJ+MnYatpOyhQkAoC/U+ZU
qV6BxV6wVRJfIQIDAQABoCkwJwYJKoZIhvcNAQkOMRowGDAWBgNVHREEDzANggtj
b250cm9sbGVyQzANBgkqhkiG9w0BAQsFAAOCAgEAU5IwOe207GdviTUS/Mr3RRZc
/r4Dw8Y6cYabL2oCU5EWISbF4x7tZM0R5Ggevwn9MellwUVQJpFaR6W1XhgYTyv7
WBkLe2EoQbOtB1UuOyhI9Qp0XN/W2WIpcahtsMsx6BkR1VH8Yo9HE51FPVq0x0ve
5mkKpaRvjV1VM6jRf1wWQyixeXH2Qz5Tp1SbjqII/f3r1lj1K8EMOSEyoZ0MXOga
YvngfdejfNFISATFyy8JswgGaDNrPx9HiN9YiDVxvibeFGHatxUSkeCy+BKPY2O6
x9CESwT0DNp/FemUf6STRvwqBMtlMTc0siCwy4wiqxqjERR2GDBM3lYhyD33GYno
kwnO05iBKejBkwo0cvbj18tjFd3m/kFOZTNwKPAeKzW9HxSb/1tW1Ao5sisOKlLS
LfMRPdR9vy/4nLlXfxIyeZeOQ0TMk7xowzta+C3CiYJJgu2W+v+ynnK+cDlc8jcl
0jHrS9UiXkSW18x11HS1hz6EwiszNFIJ8XHHLfhej8hQeHSROWbLj+WAprSN5WLH
N/wjoVFKDBJNYMDsd0Deihh2JTfKs/7K1GPto+tHDVQSCRMsZ8jI/dkaojFz2eHJ
FXtDe/nry85x/shuVOTpcPbX4gHY+3Io41WKipc6JrjEmGri/nnj8gznpcyTp7sv
8M8A9rUuULRfc9uifrk=
-----END CERTIFICATE REQUEST-----
