Certificate Request:
    Data:
        Version: 1 (0x0)
        Subject: C = US, ST = CA, L = Palo Alto, O = Open vSwitch, OU = Open vSwitch Certifier, CN = controllerA
        Subject Public Key Info:
            Public Key Algorithm: rsaEncryption
                RSA Public-Key: (4096 bit)
                Modulus:
                    00:ce:ff:32:61:c8:4a:68:33:ad:b7:8a:52:73:f0:
                    84:3a:08:3d:8d:d2:7a:de:94:be:4e:21:82:06:6f:
                    7a:ad:c6:fa:6d:5a:13:ea:e3:90:42:52:ea:99:04:
                    95:2b:87:04:97:ed:5b:97:03:5f:a1:e6:fd:6b:a8:
                    a4:0b:5e:8b:2c:23:9d:2c:59:43:3b:6b:1a:31:3e:
                    75:7e:39:d6:bf:28:7f:65:d5:04:1d:aa:ea:ee:11:
                    10:b9:56:8b:0d:71:8e:5b:79:3b:47:ff:11:2c:80:
                    e1:c5:1c:3f:aa:0b:b2:37:4b:f0:6d:d2:98:df:92:
                    5a:98:21:95:f1:a0:f0:ee:1c:0d:c4:d1:1d:04:71:
                    24:c0:f1:a0:0b:66:31:ff:8a:d9:93:71:10:bb:62:
                    d9:4c:35:c9:11:73:a1:7d:c9:6e:c0:d9:44:be:c2:
                    d3:a2:4e:be:4f:d8:8e:b1:07:c9:fa:bb:ca:91:21:
                    e2:97:0f:cf:6e:d8:e6:bd:d4:0e:8e:2b:66:e0:8b:
                    72:cf:95:a3:e1:0f:18:04:e8:df:e4:36:eb:d2:75:
                    c6:d4:af:b9:2b:0d:62:0a:07:86:3a:91:c1:ec:c5:
                    2b:a0:65:58:9e:33:04:45:81:35:f4:53:ce:ef:0e:
                    ae:5f:92:70:72:e0:65:a5:8b:56:47:ca:3e:85:43:
                    0b:2d:21:59:03:f3:fe:6c:44:51:0e:68:1c:96:1e:
                    5f:68:58:df:c2:bc:5c:5e:a7:c3:82:cb:f0:47:d1:
                    73:d1:35:10:df:1e:83:52:43:d1:81:66:e8:d2:f1:
                    22:0c:f7:f7:d6:e8:23:31:ca:9d:03:28:a8:77:cf:
                    cf:ae:c4:39:d7:df:5b:7a:46:53:96:52:52:9c:bb:
                    1b:3c:51:8f:63:9d:3f:c2:f8:ad:f6:92:d2:65:c6:
                    f1:a9:3e:c3:42:c4:29:15:67:9f:85:6d:f2:93:ed:
                    d0:aa:98:f0:70:87:d0:1b:56:b0:23:8d:b3:fc:f4:
                    f4:70:8c:66:71:64:32:bd:f2:21:d7:bf:f6:93:06:
                    db:41:9c:60:36:f6:ec:fd:d3:19:31:8c:b2:59:28:
                    61:ce:93:72:2b:0f:61:90:0a:43:ec:51:a7:c0:25:
                    1c:1a:81:a6:48:0a:b6:8b:da:27:6e:86:24:b0:d4:
                    8c:77:49:bc:c9:1e:73:bd:d5:d5:d9:36:60:79:b2:
                    70:90:0a:3f:07:c8:99:1c:2a:aa:5b:96:b9:82:96:
                    3b:fd:36:92:13:b5:18:55:82:c2:45:ea:07:42:43:
                    06:db:08:f8:45:d8:fc:a3:63:79:ba:a1:fa:35:f2:
                    83:ae:15:6e:1e:44:62:e4:b3:b6:ff:2f:1a:f2:24:
                    ef:ee:bd
                Exponent: 65537 (0x10001)
        Attributes:
        Requested Extensions:
            X509v3 Subject Alternative Name: 
                DNS:controllerA
    Signature Algorithm: sha256WithRSAEncryption
         aa:dd:e1:de:72:0f:4a:91:00:c4:f0:eb:45:1d:6f:b5:ff:70:
         b9:1c:f4:4d:73:1b:bd:93:1f:48:21:76:e1:c8:88:02:cc:37:
         6c:6e:f5:22:5e:ea:5a:c3:2e:e9:05:38:12:28:02:ac:37:84:
         72:38:61:14:dc:73:6e:c2:f0:5e:55:13:5e:c6:89:d6:03:35:
         3e:cb:f2:4c:ad:85:5a:83:23:fb:77:e3:8a:5b:aa:4e:b3:b3:
         31:c6:51:e6:e5:7b:2e:df:a6:92:9b:e3:a1:3e:f7:91:8d:1e:
         1c:4e:8d:39:8b:d0:f5:65:77:51:75:c5:49:34:a0:8a:e3:b8:
         f6:86:23:9f:44:33:82:5a:6a:a1:19:06:12:f9:8c:80:56:03:
         c0:30:64:08:d5:52:3d:e7:7f:5a:e2:b1:2a:b0:ae:e6:06:c0:
         e0:c3:34:87:a2:85:3b:b5:ef:2a:ce:a6:d4:ff:b0:67:a0:ac:
         50:2e:f4:e6:80:a4:cf:e9:d4:b4:34:10:49:13:56:0d:76:9d:
         37:81:ca:89:b1:f3:c3:e4:dd:cd:2f:05:52:e5:c8:21:0c:a5:
         8c:a7:98:54:b7:9a:b9:05:5d:ad:09:ce:ea:14:eb:1d:d1:dd:
         bb:3f:4c:a1:f9:57:f5:96:d9:17:9d:bd:89:53:0d:33:c9:10:
         d3:1d:4f:39:fb:06:1a:d0:27:47:44:63:e5:f5:1d:07:67:4b:
         01:2b:34:73:5c:5a:44:2d:4f:37:f5:d3:a3:2c:d5:7b:69:82:
         27:12:41:83:8c:d7:3d:26:45:51:00:4f:af:c2:d4:ad:90:42:
         3f:17:d9:cd:75:52:23:9c:a0:b0:29:bf:5f:a3:c9:d1:5e:13:
         31:77:1e:6e:8b:45:fe:0b:ec:f4:fc:3e:5b:16:4e:3e:d8:08:
         7b:18:61:bb:7e:0d:52:2a:f1:83:b1:14:68:f2:9b:aa:7a:19:
         cc:59:ec:1e:17:e4:2e:5d:91:a3:a4:d1:64:8c:25:5a:d9:3a:
         cb:a5:39:14:d9:d7:88:4c:58:ad:c7:be:5b:80:0e:ee:09:44:
         8b:be:94:65:fd:83:a2:71:25:27:68:88:9a:99:fb:33:71:7a:
         35:97:98:c5:80:65:76:55:e4:57:eb:90:57:46:b4:b7:86:10:
         4a:96:96:f3:f9:4d:64:2a:7e:38:79:bf:41:f4:af:a5:58:39:
         90:41:d7:83:e9:62:f5:7b:5f:83:12:ee:d6:21:08:31:55:28:
         9d:a4:2a:2a:a1:68:55:70:0c:ca:c1:e4:30:22:83:3b:c0:eb:
         a9:77:63:f3:66:55:8a:da:73:36:8f:92:59:26:a0:d4:a8:2f:
         8d:9f:f4:2a:23:29:12:5c
-----BEGIN CERTIFICATE REQUEST-----
MIIE6jCCAtICAQAwfDELMAkGA1UEBhMCVVMxCzAJBgNVBAgMAkNBMRIwEAYDVQQH
DAlQYWxvIEFsdG8xFTATBgNVBAoMDE9wZW4gdlN3aXRjaDEfMB0GA1UECwwWT3Bl
biB2U3dpdGNoIENlcnRpZmllcjEUMBIGA1UEAwwLY29udHJvbGxlckEwggIiMA0G
CSqGSIb3DQEBAQUAA4ICDwAwggIKAoICAQDO/zJhyEpoM623ilJz8IQ6CD2N0nre
lL5OIYIGb3qtxvptWhPq45BCUuqZBJUrhwSX7VuXA1+h5v1rqKQLXossI50sWUM7
axoxPnV+Oda/KH9l1QQdquruERC5VosNcY5beTtH/xEsgOHFHD+qC7I3S/Bt0pjf
klqYIZXxoPDuHA3E0R0EcSTA8aALZjH/itmTcRC7YtlMNckRc6F9yW7A2US+wtOi
Tr5P2I6xB8n6u8qRIeKXD89u2Oa91A6OK2bgi3LPlaPhDxgE6N/kNuvSdcbUr7kr
DWIKB4Y6kcHsxSugZVieMwRFgTX0U87vDq5fknBy4GWli1ZHyj6FQwstIVkD8/5s
RFEOaByWHl9oWN/CvFxep8OCy/BH0XPRNRDfHoNSQ9GBZujS8SIM9/fW6CMxyp0D
KKh3z8+uxDnX31t6RlOWUlKcuxs8UY9jnT/C+K32ktJlxvGpPsNCxCkVZ5+FbfKT
7dCqmPBwh9AbVrAjjbP89PRwjGZxZDK98iHXv/aTBttBnGA29uz90xkxjLJZKGHO
k3IrD2GQCkPsUafAJRwagaZICraL2iduhiSw1Ix3SbzJHnO91dXZNmB5snCQCj8H
yJkcKqpblrmCljv9NpITtRhVgsJF6gdCQwbbCPhF2PyjY3m6ofo18oOuFW4eRGLk
s7b/LxryJO/uvQIDAQABoCkwJwYJKoZIhvcNAQkOMRowGDAWBgNVHREEDzANggtj
b250cm9sbGVyQTANBgkqhkiG9w0BAQsFAAOCAgEAqt3h3nIPSpEAxPDrRR1vtf9w
uRz0TXMbvZMfSCF24ciIAsw3bG71Il7qWsMu6QU4EigCrDeEcjhhFNxzbsLwXlUT
XsaJ1gM1PsvyTK2FWoMj+3fjiluqTrOzMcZR5uV7Lt+mkpvjoT73kY0eHE6NOYvQ
9WV3UXXFSTSgiuO49oYjn0QzglpqoRkGEvmMgFYDwDBkCNVSPed/WuKxKrCu5gbA
4MM0h6KFO7XvKs6m1P+wZ6CsUC705oCkz+nUtDQQSRNWDXadN4HKibHzw+TdzS8F
UuXIIQyljKeYVLeauQVdrQnO6hTrHdHduz9MoflX9ZbZF529iVMNM8kQ0x1POfsG
GtAnR0Rj5fUdB2dLASs0c1xaRC1PN/XToyzVe2mCJxJBg4zXPSZFUQBPr8LUrZBC
PxfZzXVSI5ygsCm/X6PJ0V4TMXcebotF/gvs9Pw+WxZOPtgIexhhu34NUirxg7EU
aPKbqnoZzFnsHhfkLl2Ro6TRZIwlWtk6y6U5FNnXiExYrce+W4AO7glEi76UZf2D
onElJ2iImpn7M3F6NZeYxYBldlXkV+uQV0a0t4YQSpaW8/lNZCp+OHm/QfSvpVg5
kEHXg+li9XtfgxLu1iEIMVUonaQqKqFoVXAMysHkMCKDO8DrqXdj82ZVitpzNo+S
WSag1KgvjZ/0KiMpElw=
-----END CERTIFICATE REQUEST-----
