Certificate:
    Data:
        Version: 3 (0x2)
        Serial Number: 7 (0x7)
        Signature Algorithm: sha512WithRSAEncryption
        Issuer: C=US, ST=CA, O=Open vSwitch, OU=switchca, CN=switchca CA Certificate
        Validity
            Not Before: Mar 16 20:19:03 2020 GMT
            Not After : Mar 14 20:19:03 2030 GMT
        Subject: C=US, ST=CA, O=Open vSwitch, OU=Open vSwitch Certifier, CN=forwarderC
        Subject Public Key Info:
            Public Key Algorithm: rsaEncryption
                RSA Public-Key: (4096 bit)
                Modulus:
                    00:cc:f0:e1:b4:2a:eb:5b:fa:ff:97:ad:08:01:58:
                    ed:8b:a8:69:28:4d:56:a6:27:5e:74:4d:b5:7a:9d:
                    b8:79:5a:b0:c5:92:29:41:b0:ae:c4:07:bf:00:0a:
                    4c:ae:a4:28:0e:86:89:03:2d:41:9b:4f:6c:ac:a3:
                    a4:cd:94:c5:9e:5e:62:84:8e:10:d6:92:39:a3:c1:
                    00:f5:4e:1a:d9:ad:d3:8c:ce:52:a7:96:b2:cd:fa:
                    7b:0f:0f:6f:c4:4e:61:e7:fe:b8:02:21:cd:cd:b4:
                    c1:43:19:10:f8:4e:ed:35:3b:91:c5:a8:a3:ee:ce:
                    a3:8a:9c:da:b0:ef:a0:19:00:59:d6:09:2d:9d:16:
                    5a:4d:aa:d8:81:93:b8:fe:82:e3:9c:b0:d4:08:85:
                    0b:cb:f7:92:a2:1b:70:44:19:10:bf:d9:4b:7e:73:
                    3b:79:92:dc:ea:2d:39:7a:82:d5:e3:64:b6:7d:05:
                    6d:35:32:f9:17:11:e1:0f:ce:42:24:72:59:31:5c:
                    b8:d5:96:8e:55:09:66:e9:1f:66:7f:a5:a6:59:f6:
                    d8:0b:71:15:d1:bd:87:8f:c8:4d:e0:18:f7:a6:3d:
                    a7:d4:aa:9e:15:cd:ef:8f:d5:ee:bb:89:da:d6:84:
                    6d:b1:5a:35:fc:8d:57:b9:d9:13:9a:5f:fa:b0:6b:
                    03:23:21:fb:2d:a0:8a:c1:04:c3:05:d6:94:c6:15:
                    4b:8c:31:46:73:fa:7f:1e:53:5c:7e:49:c2:70:d1:
                    f5:e3:09:02:34:2b:d7:b2:79:e9:5c:6e:c2:3a:87:
                    d4:7c:43:bb:20:6e:00:7c:90:cd:87:ee:93:9c:fb:
                    a2:25:51:81:fe:9f:24:27:95:9c:9e:b5:bc:4f:c5:
                    75:0a:35:e6:5f:70:18:36:46:f2:50:75:71:4b:22:
                    86:e8:e6:b9:33:9e:47:5d:5f:08:8c:95:94:5c:e7:
                    f9:8a:51:0a:40:ef:51:77:50:82:3e:96:19:0a:52:
                    a6:2b:a0:0e:41:a4:42:bd:3a:5b:e1:26:94:ab:1b:
                    c8:31:62:76:8c:e7:c6:5f:2f:8a:9c:45:e5:92:bf:
                    5d:86:fc:77:2f:86:76:ac:5e:02:0d:3c:f6:58:b9:
                    f1:bb:40:29:8d:ee:08:ef:7b:9d:b0:ce:f4:e8:5d:
                    7f:a9:fb:c8:1e:fe:d9:86:fe:bf:f6:fe:51:68:c4:
                    3d:1b:fc:41:0b:f3:72:ad:d4:c4:e4:54:cc:f0:1b:
                    00:6b:78:5d:45:fd:0e:d9:73:5a:85:c2:01:a6:26:
                    77:1f:06:49:54:2e:3c:05:1f:79:54:f8:14:f7:45:
                    30:81:41:87:ae:8b:d6:e7:9b:67:01:06:12:d6:ec:
                    e1:93:d5
                Exponent: 65537 (0x10001)
        X509v3 extensions:
            X509v3 Basic Constraints: 
                CA:FALSE
            X509v3 Subject Alternative Name: 
                DNS:forwarderC
    Signature Algorithm: sha512WithRSAEncryption
         a2:6e:6b:e3:9b:45:ac:a6:d4:6b:82:f8:cc:dd:36:8d:f8:0f:
         45:7f:32:db:8f:95:b3:71:ee:72:6d:b0:55:e1:82:10:77:d6:
         98:21:09:cc:54:8d:c8:ca:10:46:46:24:4d:34:93:2c:1e:e4:
         30:f2:60:6f:fc:56:78:93:80:73:ac:33:a3:6e:34:53:a3:8f:
         ca:18:b8:3c:d7:0f:e9:e5:d2:bb:73:70:c0:bb:d5:a7:cf:fa:
         12:47:7e:0b:c2:0c:f9:39:8e:16:16:ae:a9:d5:ea:a9:d0:0a:
         1a:d1:3b:6e:c2:9e:f9:5d:85:20:95:ed:85:ad:6e:76:1f:0a:
         3e:63:ed:29:fc:8a:16:75:f6:8c:2f:24:3e:d2:61:c9:c9:d6:
         ea:cb:75:75:b7:72:c7:77:f4:eb:ab:61:d9:54:53:b2:76:a7:
         55:ac:87:8b:14:f4:ca:19:a6:7c:98:d8:23:74:87:e2:81:8b:
         b8:22:cf:66:82:cb:85:78:0e:97:7c:c9:6a:55:4b:cf:5d:b6:
         32:55:ba:7c:73:ca:3b:4f:ab:0f:68:91:ea:89:d1:60:69:b6:
         56:84:f0:30:0c:4a:ec:af:97:7e:23:9d:d5:60:35:7d:87:95:
         1f:ba:97:fd:7e:00:14:66:5b:0d:e5:7d:0d:25:91:9e:2c:b5:
         35:43:db:a4:65:07:0a:e3:09:19:1a:35:7b:7f:b2:a7:9a:be:
         0a:55:71:3f:98:43:11:14:25:06:2e:df:7e:5a:2a:cb:74:d0:
         aa:90:7e:1f:3a:92:f4:e4:11:62:fd:e3:78:c6:f6:f5:08:ad:
         6b:9a:8c:70:56:ac:29:4e:87:01:92:8f:b0:1f:bc:84:cb:f8:
         90:39:48:d2:a1:de:e1:6d:18:fe:14:ee:f2:24:9f:1e:73:fe:
         32:40:1d:f7:bb:df:cd:4e:bd:a4:30:ab:e8:10:71:53:3c:59:
         7a:41:25:ea:b6:a1:b6:57:bb:8c:96:08:7b:57:94:b9:41:7a:
         16:03:ce:87:30:06:8e:34:f5:7f:7e:b4:a4:8c:97:27:50:7d:
         bd:cd:ee:96:fa:ca:8b:df:86:72:71:93:69:53:c9:76:08:99:
         f4:25:57:3f:84:6a:12:16:f4:0c:94:0e:de:00:d9:5a:88:dd:
         c8:b3:7c:69:49:8e:18:c9:41:26:0b:62:f3:1a:fc:01:15:67:
         a4:6a:f5:3f:1f:4d:f4:e7:23:fc:7f:10:d3:c3:23:7c:1d:af:
         8a:e7:e9:69:3d:89:54:bc:20:12:c8:b5:ec:aa:c5:0f:e4:27:
         6b:0b:b1:0f:0f:c3:9d:c2:9c:67:90:24:fd:6f:fc:b7:df:8c:
         12:d0:1f:e1:10:56:f9:47
-----BEGIN CERTIFICATE-----
MIIFbDCCA1SgAwIBAgIBBzANBgkqhkiG9w0BAQ0FADBmMQswCQYDVQQGEwJVUzEL
MAkGA1UECAwCQ0ExFTATBgNVBAoMDE9wZW4gdlN3aXRjaDERMA8GA1UECwwIc3dp
dGNoY2ExIDAeBgNVBAMMF3N3aXRjaGNhIENBIENlcnRpZmljYXRlMB4XDTIwMDMx
NjIwMTkwM1oXDTMwMDMxNDIwMTkwM1owZzELMAkGA1UEBhMCVVMxCzAJBgNVBAgM
AkNBMRUwEwYDVQQKDAxPcGVuIHZTd2l0Y2gxHzAdBgNVBAsMFk9wZW4gdlN3aXRj
aCBDZXJ0aWZpZXIxEzARBgNVBAMMCmZvcndhcmRlckMwggIiMA0GCSqGSIb3DQEB
AQUAA4ICDwAwggIKAoICAQDM8OG0Kutb+v+XrQgBWO2LqGkoTVamJ150TbV6nbh5
WrDFkilBsK7EB78ACkyupCgOhokDLUGbT2yso6TNlMWeXmKEjhDWkjmjwQD1ThrZ
rdOMzlKnlrLN+nsPD2/ETmHn/rgCIc3NtMFDGRD4Tu01O5HFqKPuzqOKnNqw76AZ
AFnWCS2dFlpNqtiBk7j+guOcsNQIhQvL95KiG3BEGRC/2Ut+czt5ktzqLTl6gtXj
ZLZ9BW01MvkXEeEPzkIkclkxXLjVlo5VCWbpH2Z/paZZ9tgLcRXRvYePyE3gGPem
PafUqp4Vze+P1e67idrWhG2xWjX8jVe52ROaX/qwawMjIfstoIrBBMMF1pTGFUuM
MUZz+n8eU1x+ScJw0fXjCQI0K9eyeelcbsI6h9R8Q7sgbgB8kM2H7pOc+6IlUYH+
nyQnlZyetbxPxXUKNeZfcBg2RvJQdXFLIobo5rkznkddXwiMlZRc5/mKUQpA71F3
UII+lhkKUqYroA5BpEK9OlvhJpSrG8gxYnaM58ZfL4qcReWSv12G/HcvhnasXgIN
PPZYufG7QCmN7gjve52wzvToXX+p+8ge/tmG/r/2/lFoxD0b/EEL83Kt1MTkVMzw
GwBreF1F/Q7Zc1qFwgGmJncfBklULjwFH3lU+BT3RTCBQYeui9bnm2cBBhLW7OGT
1QIDAQABoyQwIjAJBgNVHRMEAjAAMBUGA1UdEQQOMAyCCmZvcndhcmRlckMwDQYJ
KoZIhvcNAQENBQADggIBAKJua+ObRaym1GuC+MzdNo34D0V/MtuPlbNx7nJtsFXh
ghB31pghCcxUjcjKEEZGJE00kywe5DDyYG/8VniTgHOsM6NuNFOjj8oYuDzXD+nl
0rtzcMC71afP+hJHfgvCDPk5jhYWrqnV6qnQChrRO27CnvldhSCV7YWtbnYfCj5j
7Sn8ihZ19owvJD7SYcnJ1urLdXW3csd39OurYdlUU7J2p1Wsh4sU9MoZpnyY2CN0
h+KBi7giz2aCy4V4Dpd8yWpVS89dtjJVunxzyjtPqw9okeqJ0WBptlaE8DAMSuyv
l34jndVgNX2HlR+6l/1+ABRmWw3lfQ0lkZ4stTVD26RlBwrjCRkaNXt/sqeavgpV
cT+YQxEUJQYu335aKst00KqQfh86kvTkEWL943jG9vUIrWuajHBWrClOhwGSj7Af
vITL+JA5SNKh3uFtGP4U7vIknx5z/jJAHfe7381OvaQwq+gQcVM8WXpBJeq2obZX
u4yWCHtXlLlBehYDzocwBo409X9+tKSMlydQfb3N7pb6yovfhnJxk2lTyXYImfQl
Vz+EahIW9AyUDt4A2VqI3cizfGlJjhjJQSYLYvMa/AEVZ6Rq9T8fTfTnI/x/ENPD
I3wdr4rn6Wk9iVS8IBLIteyqxQ/kJ2sLsQ8Pw53CnGeQJP1v/LffjBLQH+EQVvlH
-----END CERTIFICATE-----
