Certificate Request:
    Data:
        Version: 1 (0x0)
        Subject: C = US, ST = CA, L = Palo Alto, O = Open vSwitch, OU = Open vSwitch Certifier, CN = forwarderA
        Subject Public Key Info:
            Public Key Algorithm: rsaEncryption
                RSA Public-Key: (4096 bit)
                Modulus:
                    00:a2:c3:ce:5a:55:51:29:be:85:17:e7:39:c5:a8:
                    90:55:bb:66:c5:13:06:9e:35:ad:a8:a1:eb:55:62:
                    1b:43:be:5d:fb:4d:79:cc:84:9b:d5:d1:ce:a3:35:
                    e4:89:cf:83:76:d2:2e:36:89:1f:4b:68:cf:b0:d4:
                    0c:18:42:ef:1a:11:e2:07:05:cc:c1:bf:15:12:d5:
                    0c:80:d0:46:13:65:d9:66:8c:6a:32:9e:23:ce:f3:
                    5a:1a:ed:16:35:83:83:07:41:20:41:91:98:1f:44:
                    50:d4:fd:54:67:16:21:d1:aa:80:f2:e1:be:7e:a5:
                    e1:71:2e:76:a4:41:17:47:09:01:bd:70:6e:b2:85:
                    d7:8c:09:0e:c9:ff:54:fb:40:4e:1f:7c:85:94:5b:
                    33:11:fa:18:d0:d9:b1:87:bd:24:e1:40:4c:dd:dd:
                    be:9e:02:c6:29:d6:5b:68:98:3f:cd:25:09:8d:7f:
                    08:8a:b4:82:56:c5:c9:25:ef:aa:1a:48:64:13:b1:
                    a2:6f:90:9b:65:0b:60:25:b3:9e:5d:d5:cf:bd:e8:
                    0b:cf:9b:46:a2:ec:b4:c8:02:0a:4d:d4:05:5d:26:
                    cd:6b:d7:24:82:d8:eb:df:62:5b:99:30:b2:72:3e:
                    d6:b7:73:35:1b:3f:2d:da:c0:21:28:30:88:07:58:
                    e7:66:a5:46:a3:d3:3f:c8:4a:dc:e0:c4:2a:a5:1b:
                    d3:5e:0d:7d:13:e1:0c:0e:7f:ca:20:b0:48:b6:15:
                    2b:12:5f:5d:5d:31:56:c9:88:d1:4f:e2:12:45:29:
                    db:0b:1c:cd:17:65:6a:1b:8d:df:70:1a:d1:50:a9:
                    35:fe:7d:17:11:69:f8:23:7d:79:28:67:00:98:38:
                    f4:04:53:3d:03:c6:8b:4e:c6:ce:69:8a:c3:ed:6c:
                    e6:3d:87:b3:69:68:25:3b:a5:10:db:78:15:ee:f3:
                    96:51:ef:ef:83:89:ba:ae:b5:5d:86:8c:83:ac:dc:
                    cc:51:60:1e:2f:5c:cd:73:bb:23:96:ac:fe:6b:c9:
                    01:e3:01:dc:f0:a9:5e:c8:ca:fc:d7:64:a4:ae:8d:
                    75:26:0e:2b:0e:73:3c:f7:86:52:69:75:fa:8d:d6:
                    69:76:95:8c:64:e6:0b:68:8f:f5:3e:86:15:ab:4c:
                    0b:79:b3:bf:7f:d8:61:88:de:67:df:11:9e:c0:c6:
                    25:99:bf:d3:67:fd:b9:53:9b:ba:61:5a:4f:30:dc:
                    02:8c:3c:6d:ce:9e:ec:a4:4e:e7:80:49:74:bf:6d:
                    d7:83:7d:a0:4b:91:df:e4:ec:85:44:a8:42:70:3e:
                    b7:81:a5:91:06:22:29:3b:9d:4d:d3:b9:bd:84:61:
                    e6:b7:15
                Exponent: 65537 (0x10001)
        Attributes:
        Requested Extensions:
            X509v3 Subject Alternative Name: 
                DNS:forwarderA
    Signature Algorithm: sha256WithRSAEncryption
         4d:bc:d4:f7:cd:1d:ce:70:22:1b:c3:ae:0e:47:f6:6d:51:38:
         a9:bd:37:c9:da:8e:28:5c:a4:94:ba:eb:8a:76:a4:85:cf:96:
         cf:c1:a0:73:fa:79:a9:cd:fa:35:94:cf:b9:d4:97:af:12:8a:
         e4:8e:c8:be:9b:75:f6:fb:01:59:01:96:60:d0:c0:a9:04:16:
         12:ad:3c:19:81:54:82:80:fd:f6:8d:55:d3:70:8e:1c:f7:b0:
         92:02:34:39:9c:f1:c8:eb:91:88:a5:5f:aa:89:0a:ae:d7:66:
         0d:1b:d5:7e:fc:bd:da:78:d2:bb:a1:98:e0:8c:ce:73:5b:ac:
         70:bd:98:58:35:00:a9:2a:33:a3:ae:9e:0f:dc:71:4d:04:95:
         dc:39:da:ca:2d:ee:8a:0e:99:a2:cd:03:e1:18:d4:8a:78:17:
         98:93:10:84:32:97:e2:92:3f:bc:4c:d1:9b:60:0e:66:f5:35:
         9d:df:a3:53:51:3e:e5:a3:d4:1c:d4:d9:d3:26:66:ea:a4:0e:
         2e:4e:dc:2c:e8:73:15:2f:ff:1d:55:46:6c:1b:a2:50:b0:d3:
         a5:26:73:43:44:52:3c:4a:75:41:65:9d:87:85:d2:52:66:88:
         5a:00:da:94:9e:45:b4:44:50:2b:fd:60:b8:14:6b:53:b3:a8:
         75:4f:5b:05:3a:0c:9b:46:98:ad:70:f7:66:87:04:2c:77:2f:
         19:e4:58:b1:83:ce:1f:d7:a0:c9:6b:65:3c:76:00:eb:c9:fd:
         e9:b6:39:b2:24:c4:81:7d:bf:e7:77:b6:76:d2:4f:a2:de:90:
         ef:43:9a:25:76:f6:cd:55:b4:a5:43:a9:76:70:0c:86:a6:f8:
         01:de:72:38:61:3d:a1:e2:1b:6c:2d:fa:4d:50:dd:a5:48:f2:
         d0:2d:1c:09:aa:67:9b:c8:a0:23:4d:1f:53:84:eb:17:92:ee:
         ef:09:00:27:2c:aa:1c:39:4b:de:5b:94:36:f0:18:34:08:e7:
         d5:9a:55:84:12:58:ef:ae:18:a2:df:fc:18:fc:7d:d0:8c:0c:
         ec:35:fe:92:55:7d:1a:4a:40:a2:d2:06:eb:28:55:9e:f1:33:
         5b:54:07:6e:2a:36:43:3a:ec:d1:f1:7e:9a:6a:59:71:64:c8:
         c9:c7:84:51:27:bb:93:ea:20:11:38:91:ad:e7:05:a6:b2:17:
         57:42:71:70:c3:a3:34:5f:64:e8:51:f5:24:19:2d:3b:3a:04:
         d9:65:fe:9c:1c:84:c6:0b:c0:f3:69:74:98:a4:18:2e:16:f6:
         34:1f:9e:68:1b:e8:41:75:c8:d1:31:b6:f2:00:ef:13:f0:34:
         27:44:a0:c0:fd:98:80:67
-----BEGIN CERTIFICATE REQUEST-----
MIIE6DCCAtACAQAwezELMAkGA1UEBhMCVVMxCzAJBgNVBAgMAkNBMRIwEAYDVQQH
DAlQYWxvIEFsdG8xFTATBgNVBAoMDE9wZW4gdlN3aXRjaDEfMB0GA1UECwwWT3Bl
biB2U3dpdGNoIENlcnRpZmllcjETMBEGA1UEAwwKZm9yd2FyZGVyQTCCAiIwDQYJ
KoZIhvcNAQEBBQADggIPADCCAgoCggIBAKLDzlpVUSm+hRfnOcWokFW7ZsUTBp41
raih61ViG0O+XftNecyEm9XRzqM15InPg3bSLjaJH0toz7DUDBhC7xoR4gcFzMG/
FRLVDIDQRhNl2WaMajKeI87zWhrtFjWDgwdBIEGRmB9EUNT9VGcWIdGqgPLhvn6l
4XEudqRBF0cJAb1wbrKF14wJDsn/VPtATh98hZRbMxH6GNDZsYe9JOFATN3dvp4C
xinWW2iYP80lCY1/CIq0glbFySXvqhpIZBOxom+Qm2ULYCWznl3Vz73oC8+bRqLs
tMgCCk3UBV0mzWvXJILY699iW5kwsnI+1rdzNRs/LdrAISgwiAdY52alRqPTP8hK
3ODEKqUb014NfRPhDA5/yiCwSLYVKxJfXV0xVsmI0U/iEkUp2wsczRdlahuN33Aa
0VCpNf59FxFp+CN9eShnAJg49ARTPQPGi07GzmmKw+1s5j2Hs2loJTulENt4Fe7z
llHv74OJuq61XYaMg6zczFFgHi9czXO7I5as/mvJAeMB3PCpXsjK/NdkpK6NdSYO
Kw5zPPeGUml1+o3WaXaVjGTmC2iP9T6GFatMC3mzv3/YYYjeZ98RnsDGJZm/02f9
uVObumFaTzDcAow8bc6e7KRO54BJdL9t14N9oEuR3+TshUSoQnA+t4GlkQYiKTud
TdO5vYRh5rcVAgMBAAGgKDAmBgkqhkiG9w0BCQ4xGTAXMBUGA1UdEQQOMAyCCmZv
cndhcmRlckEwDQYJKoZIhvcNAQELBQADggIBAE281PfNHc5wIhvDrg5H9m1ROKm9
N8najihcpJS664p2pIXPls/BoHP6eanN+jWUz7nUl68SiuSOyL6bdfb7AVkBlmDQ
wKkEFhKtPBmBVIKA/faNVdNwjhz3sJICNDmc8cjrkYilX6qJCq7XZg0b1X78vdp4
0ruhmOCMznNbrHC9mFg1AKkqM6Oung/ccU0Eldw52sot7ooOmaLNA+EY1Ip4F5iT
EIQyl+KSP7xM0ZtgDmb1NZ3fo1NRPuWj1BzU2dMmZuqkDi5O3CzocxUv/x1VRmwb
olCw06Umc0NEUjxKdUFlnYeF0lJmiFoA2pSeRbREUCv9YLgUa1OzqHVPWwU6DJtG
mK1w92aHBCx3LxnkWLGDzh/XoMlrZTx2AOvJ/em2ObIkxIF9v+d3tnbST6LekO9D
miV29s1VtKVDqXZwDIam+AHecjhhPaHiG2wt+k1Q3aVI8tAtHAmqZ5vIoCNNH1OE
6xeS7u8JACcsqhw5S95blDbwGDQI59WaVYQSWO+uGKLf/Bj8fdCMDOw1/pJVfRpK
QKLSBusoVZ7xM1tUB24qNkM67NHxfppqWXFkyMnHhFEnu5PqIBE4ka3nBaayF1dC
cXDDozRfZOhR9SQZLTs6BNll/pwchMYLwPNpdJikGC4W9jQfnmgb6EF1yNExtvIA
7xPwNCdEoMD9mIBn
-----END CERTIFICATE REQUEST-----
