Certificate Request:
    Data:
        Version: 1 (0x0)
        Subject: C = US, ST = CA, L = Palo Alto, O = Open vSwitch, OU = Open vSwitch Certifier, CN = forwarderB
        Subject Public Key Info:
            Public Key Algorithm: rsaEncryption
                RSA Public-Key: (4096 bit)
                Modulus:
                    00:ca:9a:87:95:be:28:c9:21:df:77:c7:5f:e4:6c:
                    5d:92:86:5f:03:25:00:e5:80:d3:51:7b:df:b0:07:
                    9f:5c:6f:81:b2:86:a3:87:57:e5:da:f9:ab:7d:04:
                    06:78:69:4a:df:4f:b9:69:81:8d:a5:44:c1:46:71:
                    31:ee:1a:b8:c8:24:fc:ee:8f:4b:bb:ce:b5:86:62:
                    6f:96:6c:6b:76:e1:b3:eb:a6:8a:60:99:6b:7c:63:
                    0a:64:fa:c4:6d:31:83:e6:0b:68:24:20:79:05:75:
                    76:b6:3c:76:b7:98:7c:b2:54:94:a8:f5:a1:09:28:
                    7f:82:04:01:2f:65:f0:cf:41:a0:96:8a:3f:77:7c:
                    58:0b:89:95:24:11:45:fb:8a:61:31:cb:99:b0:6e:
                    d1:38:6c:e9:8f:03:d6:42:bd:a6:18:80:f2:03:2a:
                    92:1d:0e:c7:f1:b3:d0:81:b1:8f:79:f7:99:2d:87:
                    b5:d4:f2:02:de:41:7a:f1:68:ee:bd:65:3b:56:29:
                    ca:c2:10:36:c3:af:58:53:6c:fa:0c:98:2f:ca:9f:
                    a2:e5:2c:a6:7b:c4:27:cf:8b:d6:78:e4:0f:a5:bd:
                    6c:8d:61:30:77:99:15:07:d1:c1:21:10:04:4a:14:
                    9e:15:d4:6d:b1:f6:c4:c1:71:a9:8d:e0:56:70:e2:
                    8f:f1:03:20:62:70:21:9a:e5:06:4d:74:e9:f6:75:
                    d9:1f:fb:de:15:0d:bd:07:86:9e:4c:42:61:71:07:
                    45:77:33:21:b6:07:d8:fe:e1:c2:1a:99:51:0f:6f:
                    3f:e3:c9:0b:52:d1:35:89:b1:af:31:a4:8a:6b:69:
                    9e:11:df:78:56:4f:0d:01:96:ef:87:38:45:a5:17:
                    be:a0:a5:c1:91:b2:e7:86:37:13:60:f4:84:eb:71:
                    d3:a2:1d:3e:f1:04:50:83:45:72:aa:c1:3e:72:81:
                    74:ba:19:7d:d7:0c:e6:c9:d5:47:7f:47:a0:d6:56:
                    c7:20:a6:89:44:ac:b7:a7:6b:c6:cd:da:6b:59:ba:
                    30:67:11:14:30:d4:8a:7f:aa:02:87:47:d1:fa:ba:
                    bb:f1:42:8d:e2:44:6b:cc:33:00:d2:de:0a:0b:e3:
                    7f:57:30:b0:5f:59:a9:9b:37:4a:b0:e8:49:a3:bc:
                    6b:0b:ae:b0:c0:cb:37:6c:6f:2d:7a:67:e3:90:a4:
                    65:e8:68:ea:42:91:53:44:13:d1:98:91:dc:a9:8e:
                    ad:7b:8d:8a:fd:23:3d:62:2e:90:0d:18:d3:9d:d2:
                    73:49:35:25:63:fd:4e:a0:9b:7a:a3:df:4f:40:ac:
                    17:86:2f:e0:59:ff:c9:3e:cc:73:87:0c:e2:c9:92:
                    5f:a2:73
                Exponent: 65537 (0x10001)
        Attributes:
        Requested Extensions:
            X509v3 Subject Alternative Name: 
                DNS:forwarderB
    Signature Algorithm: sha256WithRSAEncryption
         32:d6:37:0c:0c:1a:39:d7:28:c4:cf:37:d9:52:fe:3a:df:00:
         50:ca:47:fc:c6:fd:00:17:05:86:73:e1:65:71:c8:ae:25:54:
         b9:e0:cb:91:2c:89:08:10:2f:01:33:7a:21:9d:92:00:e9:5b:
         dc:83:7e:2d:c2:74:94:12:c8:3d:3a:68:06:d2:72:08:34:21:
         66:1a:d2:ae:b5:4f:5c:f9:21:99:b1:57:6d:4b:60:c7:29:35:
         55:f3:ea:41:71:49:48:5f:a7:ee:8c:46:8f:c3:ae:c5:d8:76:
         08:ab:94:ab:00:3e:17:10:96:00:06:f2:8f:32:11:23:81:e7:
         f4:74:59:6c:08:b1:2d:d6:78:2c:56:06:f7:e7:18:e5:b0:ca:
         5c:4e:d7:b0:06:5b:0b:38:f9:fe:f7:c3:c5:b8:dd:65:e2:8d:
         1f:f9:5a:28:36:7f:d2:ec:a6:34:c4:4d:31:39:11:91:bd:7e:
         04:ab:ff:ac:f7:a1:13:2a:04:78:7f:c1:f9:35:a0:92:5e:9a:
         c8:71:f4:17:35:59:9c:68:bf:ad:76:0a:01:06:75:d8:89:b6:
         47:0e:42:ac:ca:a2:20:49:35:ed:6f:d4:c2:20:8a:9d:5c:e7:
         9b:82:ab:4c:6b:ed:1e:2a:c3:9a:5e:1b:94:14:ba:38:cb:04:
         fa:94:81:69:a1:e9:7a:d2:ec:0a:3c:58:cd:97:fa:25:c8:00:
         47:ba:fe:a1:9d:f7:e2:99:55:4a:c3:a4:0a:01:f2:29:2d:e5:
         d1:59:f1:51:15:30:a8:58:b7:fd:13:d8:69:95:95:cc:1f:7c:
         b6:b8:37:79:92:c7:0a:55:78:00:52:9b:b8:66:73:00:ce:54:
         ba:9f:6f:08:7d:49:5c:31:f2:4a:8d:47:97:b0:f7:92:60:46:
         6a:2a:bb:bd:77:ea:56:5f:a2:7f:59:06:ad:c1:ea:ef:a8:0c:
         06:2d:d8:49:99:da:23:95:8b:a4:94:2e:d4:ff:7f:20:5d:71:
         03:10:9d:e9:44:7c:d3:7b:df:6f:83:57:c7:7d:80:72:e6:6a:
         21:a0:d5:ac:d7:b1:65:83:73:b9:98:67:98:63:8f:d0:1f:c6:
         2d:a8:24:91:7d:35:a4:4e:0e:09:e2:9f:ea:05:b9:b7:a8:06:
         32:74:4e:90:21:6c:af:fb:fe:8e:95:97:e0:b2:3d:3a:6f:8d:
         88:79:90:be:f2:b5:56:33:51:e0:b5:86:9f:0e:5c:0b:36:21:
         2f:da:d5:ce:a6:57:c1:88:39:cc:d6:6e:56:e2:5a:29:03:93:
         35:77:b6:e0:bc:0a:15:2a:38:39:b1:21:db:7f:4e:42:57:95:
         75:d5:ff:be:3c:7f:3e:29
-----BEGIN CERTIFICATE REQUEST-----
MIIE6DCCAtACAQAwezELMAkGA1UEBhMCVVMxCzAJBgNVBAgMAkNBMRIwEAYDVQQH
DAlQYWxvIEFsdG8xFTATBgNVBAoMDE9wZW4gdlN3aXRjaDEfMB0GA1UECwwWT3Bl
biB2U3dpdGNoIENlcnRpZmllcjETMBEGA1UEAwwKZm9yd2FyZGVyQjCCAiIwDQYJ
KoZIhvcNAQEBBQADggIPADCCAgoCggIBAMqah5W+KMkh33fHX+RsXZKGXwMlAOWA
01F737AHn1xvgbKGo4dX5dr5q30EBnhpSt9PuWmBjaVEwUZxMe4auMgk/O6PS7vO
tYZib5Zsa3bhs+umimCZa3xjCmT6xG0xg+YLaCQgeQV1drY8dreYfLJUlKj1oQko
f4IEAS9l8M9BoJaKP3d8WAuJlSQRRfuKYTHLmbBu0Ths6Y8D1kK9phiA8gMqkh0O
x/Gz0IGxj3n3mS2HtdTyAt5BevFo7r1lO1YpysIQNsOvWFNs+gyYL8qfouUspnvE
J8+L1njkD6W9bI1hMHeZFQfRwSEQBEoUnhXUbbH2xMFxqY3gVnDij/EDIGJwIZrl
Bk106fZ12R/73hUNvQeGnkxCYXEHRXczIbYH2P7hwhqZUQ9vP+PJC1LRNYmxrzGk
imtpnhHfeFZPDQGW74c4RaUXvqClwZGy54Y3E2D0hOtx06IdPvEEUINFcqrBPnKB
dLoZfdcM5snVR39HoNZWxyCmiUSst6drxs3aa1m6MGcRFDDUin+qAodH0fq6u/FC
jeJEa8wzANLeCgvjf1cwsF9ZqZs3SrDoSaO8awuusMDLN2xvLXpn45CkZeho6kKR
U0QT0ZiR3KmOrXuNiv0jPWIukA0Y053Sc0k1JWP9TqCbeqPfT0CsF4Yv4Fn/yT7M
c4cM4smSX6JzAgMBAAGgKDAmBgkqhkiG9w0BCQ4xGTAXMBUGA1UdEQQOMAyCCmZv
cndhcmRlckIwDQYJKoZIhvcNAQELBQADggIBADLWNwwMGjnXKMTPN9lS/jrfAFDK
R/zG/QAXBYZz4WVxyK4lVLngy5EsiQgQLwEzeiGdkgDpW9yDfi3CdJQSyD06aAbS
cgg0IWYa0q61T1z5IZmxV21LYMcpNVXz6kFxSUhfp+6MRo/DrsXYdgirlKsAPhcQ
lgAG8o8yESOB5/R0WWwIsS3WeCxWBvfnGOWwylxO17AGWws4+f73w8W43WXijR/5
Wig2f9LspjTETTE5EZG9fgSr/6z3oRMqBHh/wfk1oJJemshx9Bc1WZxov612CgEG
ddiJtkcOQqzKoiBJNe1v1MIgip1c55uCq0xr7R4qw5peG5QUujjLBPqUgWmh6XrS
7Ao8WM2X+iXIAEe6/qGd9+KZVUrDpAoB8ikt5dFZ8VEVMKhYt/0T2GmVlcwffLa4
N3mSxwpVeABSm7hmcwDOVLqfbwh9SVwx8kqNR5ew95JgRmoqu7136lZfon9ZBq3B
6u+oDAYt2EmZ2iOVi6SULtT/fyBdcQMQnelEfNN732+DV8d9gHLmaiGg1azXsWWD
c7mYZ5hjj9Afxi2oJJF9NaRODgnin+oFubeoBjJ0TpAhbK/7/o6Vl+CyPTpvjYh5
kL7ytVYzUeC1hp8OXAs2IS/a1c6mV8GIOczWblbiWikDkzV3tuC8ChUqODmxIdt/
TkJXlXXV/748fz4p
-----END CERTIFICATE REQUEST-----
