Certificate Request:
    Data:
        Version: 1 (0x0)
        Subject: C = US, ST = CA, L = Palo Alto, O = Open vSwitch, OU = Open vSwitch Certifier, CN = forwarderC
        Subject Public Key Info:
            Public Key Algorithm: rsaEncryption
                RSA Public-Key: (4096 bit)
                Modulus:
                    00:cc:f0:e1:b4:2a:eb:5b:fa:ff:97:ad:08:01:58:
                    ed:8b:a8:69:28:4d:56:a6:27:5e:74:4d:b5:7a:9d:
                    b8:79:5a:b0:c5:92:29:41:b0:ae:c4:07:bf:00:0a:
                    4c:ae:a4:28:0e:86:89:03:2d:41:9b:4f:6c:ac:a3:
                    a4:cd:94:c5:9e:5e:62:84:8e:10:d6:92:39:a3:c1:
                    00:f5:4e:1a:d9:ad:d3:8c:ce:52:a7:96:b2:cd:fa:
                    7b:0f:0f:6f:c4:4e:61:e7:fe:b8:02:21:cd:cd:b4:
                    c1:43:19:10:f8:4e:ed:35:3b:91:c5:a8:a3:ee:ce:
                    a3:8a:9c:da:b0:ef:a0:19:00:59:d6:09:2d:9d:16:
                    5a:4d:aa:d8:81:93:b8:fe:82:e3:9c:b0:d4:08:85:
                    0b:cb:f7:92:a2:1b:70:44:19:10:bf:d9:4b:7e:73:
                    3b:79:92:dc:ea:2d:39:7a:82:d5:e3:64:b6:7d:05:
                    6d:35:32:f9:17:11:e1:0f:ce:42:24:72:59:31:5c:
                    b8:d5:96:8e:55:09:66:e9:1f:66:7f:a5:a6:59:f6:
                    d8:0b:71:15:d1:bd:87:8f:c8:4d:e0:18:f7:a6:3d:
                    a7:d4:aa:9e:15:cd:ef:8f:d5:ee:bb:89:da:d6:84:
                    6d:b1:5a:35:fc:8d:57:b9:d9:13:9a:5f:fa:b0:6b:
                    03:23:21:fb:2d:a0:8a:c1:04:c3:05:d6:94:c6:15:
                    4b:8c:31:46:73:fa:7f:1e:53:5c:7e:49:c2:70:d1:
                    f5:e3:09:02:34:2b:d7:b2:79:e9:5c:6e:c2:3a:87:
                    d4:7c:43:bb:20:6e:00:7c:90:cd:87:ee:93:9c:fb:
                    a2:25:51:81:fe:9f:24:27:95:9c:9e:b5:bc:4f:c5:
                    75:0a:35:e6:5f:70:18:36:46:f2:50:75:71:4b:22:
                    86:e8:e6:b9:33:9e:47:5d:5f:08:8c:95:94:5c:e7:
                    f9:8a:51:0a:40:ef:51:77:50:82:3e:96:19:0a:52:
                    a6:2b:a0:0e:41:a4:42:bd:3a:5b:e1:26:94:ab:1b:
                    c8:31:62:76:8c:e7:c6:5f:2f:8a:9c:45:e5:92:bf:
                    5d:86:fc:77:2f:86:76:ac:5e:02:0d:3c:f6:58:b9:
                    f1:bb:40:29:8d:ee:08:ef:7b:9d:b0:ce:f4:e8:5d:
                    7f:a9:fb:c8:1e:fe:d9:86:fe:bf:f6:fe:51:68:c4:
                    3d:1b:fc:41:0b:f3:72:ad:d4:c4:e4:54:cc:f0:1b:
                    00:6b:78:5d:45:fd:0e:d9:73:5a:85:c2:01:a6:26:
                    77:1f:06:49:54:2e:3c:05:1f:79:54:f8:14:f7:45:
                    30:81:41:87:ae:8b:d6:e7:9b:67:01:06:12:d6:ec:
                    e1:93:d5
                Exponent: 65537 (0x10001)
        Attributes:
        Requested Extensions:
            X509v3 Subject Alternative Name: 
                DNS:forwarderC
    Signature Algorithm: sha256WithRSAEncryption
         b4:14:bc:0e:0a:29:eb:77:00:f4:f7:b4:23:45:46:5f:20:1d:
         c3:b7:df:24:c6:85:3d:45:35:9b:8a:c7:46:05:63:15:e0:c6:
         63:8c:d3:d1:91:61:76:65:cc:31:bb:48:dd:2c:cb:6b:79:9e:
         b2:90:89:9f:ea:f2:ab:0d:d7:b5:b5:d5:ec:55:33:c7:e8:ff:
         30:94:83:33:08:7c:eb:45:a4:51:21:d4:3b:94:76:82:4a:6a:
         fa:0b:cc:d5:0d:64:54:4f:61:b1:3f:5e:12:f7:73:be:42:ad:
         5c:f0:be:69:ab:e6:ec:7f:6e:2e:93:21:96:7a:08:57:8b:9d:
         52:f3:75:00:c4:b0:82:45:a8:28:70:cc:8f:24:1a:2a:2f:1b:
         71:4b:b4:3e:a7:cb:df:d7:07:19:db:48:c0:a4:01:5c:67:75:
         d7:0e:d5:bc:e4:9b:0c:19:1d:c5:a8:28:8f:be:36:b2:7e:5b:
         1c:10:0d:9d:65:9c:93:f6:59:61:49:35:81:06:57:f5:42:f7:
         c1:65:d4:0d:a8:06:ab:62:60:19:c5:f2:f7:34:bf:61:a2:c6:
         b3:9f:e5:80:e6:fa:5f:57:09:ab:56:bb:bd:36:e6:67:f9:f8:
         b9:3c:cf:e5:0e:99:35:84:6b:63:cf:70:3d:ee:5e:29:83:49:
         c0:82:f0:dd:d2:42:d5:2d:b3:db:9f:fb:b3:13:e8:b3:67:f9:
         2e:de:36:b4:2e:a9:9c:19:d1:a3:b9:65:93:93:f4:0d:6b:90:
         5f:e3:4b:1a:9c:37:46:74:76:a6:fa:d4:2e:ae:62:d9:c6:13:
         54:8a:9a:b6:d6:8b:31:c9:98:93:38:81:a3:24:8f:c0:84:57:
         79:4f:56:f6:cb:01:40:ed:4b:ec:08:6e:28:7d:83:f0:5b:ec:
         1e:59:80:d0:3a:01:71:bf:c5:98:9e:52:59:f5:b5:48:6f:fb:
         3c:e5:da:9a:00:a8:fb:3e:83:64:b5:bd:7a:d2:53:3b:4d:00:
         ca:90:81:6a:6f:2d:3d:5c:d1:fb:9e:14:b3:91:23:71:3b:a7:
         fa:2e:6f:94:46:b1:37:fb:9d:b8:35:01:f2:ec:bf:85:9b:c3:
         fc:21:30:6c:53:16:47:b3:39:80:bd:8c:77:67:ba:df:99:97:
         66:cb:2e:be:61:72:85:48:54:90:b2:f5:37:ba:fa:a3:fd:14:
         c4:03:80:d1:84:d9:56:71:a4:2c:cb:e4:c3:d3:08:ff:8e:85:
         18:10:29:c2:0f:f1:ed:5b:aa:dd:32:75:f9:d7:5b:49:28:f1:
         7f:f9:33:d6:91:35:12:da:d2:17:96:a7:bb:9d:64:64:a2:22:
         1b:a6:df:14:fc:95:ea:37
-----BEGIN CERTIFICATE REQUEST-----
MIIE6DCCAtACAQAwezELMAkGA1UEBhMCVVMxCzAJBgNVBAgMAkNBMRIwEAYDVQQH
DAlQYWxvIEFsdG8xFTATBgNVBAoMDE9wZW4gdlN3aXRjaDEfMB0GA1UECwwWT3Bl
biB2U3dpdGNoIENlcnRpZmllcjETMBEGA1UEAwwKZm9yd2FyZGVyQzCCAiIwDQYJ
KoZIhvcNAQEBBQADggIPADCCAgoCggIBAMzw4bQq61v6/5etCAFY7YuoaShNVqYn
XnRNtXqduHlasMWSKUGwrsQHvwAKTK6kKA6GiQMtQZtPbKyjpM2UxZ5eYoSOENaS
OaPBAPVOGtmt04zOUqeWss36ew8Pb8ROYef+uAIhzc20wUMZEPhO7TU7kcWoo+7O
o4qc2rDvoBkAWdYJLZ0WWk2q2IGTuP6C45yw1AiFC8v3kqIbcEQZEL/ZS35zO3mS
3OotOXqC1eNktn0FbTUy+RcR4Q/OQiRyWTFcuNWWjlUJZukfZn+lpln22AtxFdG9
h4/ITeAY96Y9p9SqnhXN74/V7ruJ2taEbbFaNfyNV7nZE5pf+rBrAyMh+y2gisEE
wwXWlMYVS4wxRnP6fx5TXH5JwnDR9eMJAjQr17J56VxuwjqH1HxDuyBuAHyQzYfu
k5z7oiVRgf6fJCeVnJ61vE/FdQo15l9wGDZG8lB1cUsihujmuTOeR11fCIyVlFzn
+YpRCkDvUXdQgj6WGQpSpiugDkGkQr06W+EmlKsbyDFidoznxl8vipxF5ZK/XYb8
dy+GdqxeAg089li58btAKY3uCO97nbDO9Ohdf6n7yB7+2Yb+v/b+UWjEPRv8QQvz
cq3UxORUzPAbAGt4XUX9DtlzWoXCAaYmdx8GSVQuPAUfeVT4FPdFMIFBh66L1ueb
ZwEGEtbs4ZPVAgMBAAGgKDAmBgkqhkiG9w0BCQ4xGTAXMBUGA1UdEQQOMAyCCmZv
cndhcmRlckMwDQYJKoZIhvcNAQELBQADggIBALQUvA4KKet3APT3tCNFRl8gHcO3
3yTGhT1FNZuKx0YFYxXgxmOM09GRYXZlzDG7SN0sy2t5nrKQiZ/q8qsN17W11exV
M8fo/zCUgzMIfOtFpFEh1DuUdoJKavoLzNUNZFRPYbE/XhL3c75CrVzwvmmr5ux/
bi6TIZZ6CFeLnVLzdQDEsIJFqChwzI8kGiovG3FLtD6ny9/XBxnbSMCkAVxnddcO
1bzkmwwZHcWoKI++NrJ+WxwQDZ1lnJP2WWFJNYEGV/VC98Fl1A2oBqtiYBnF8vc0
v2GixrOf5YDm+l9XCatWu7025mf5+Lk8z+UOmTWEa2PPcD3uXimDScCC8N3SQtUt
s9uf+7MT6LNn+S7eNrQuqZwZ0aO5ZZOT9A1rkF/jSxqcN0Z0dqb61C6uYtnGE1SK
mrbWizHJmJM4gaMkj8CEV3lPVvbLAUDtS+wIbih9g/Bb7B5ZgNA6AXG/xZieUln1
tUhv+zzl2poAqPs+g2S1vXrSUztNAMqQgWpvLT1c0fueFLORI3E7p/oub5RGsTf7
nbg1AfLsv4Wbw/whMGxTFkezOYC9jHdnut+Zl2bLLr5hcoVIVJCy9Te6+qP9FMQD
gNGE2VZxpCzL5MPTCP+OhRgQKcIP8e1bqt0ydfnXW0ko8X/5M9aRNRLa0heWp7ud
ZGSiIhum3xT8leo3
-----END CERTIFICATE REQUEST-----
