Certificate:
    Data:
        Version: 3 (0x2)
        Serial Number: 6 (0x6)
        Signature Algorithm: sha512WithRSAEncryption
        Issuer: C=US, ST=CA, O=Open vSwitch, OU=switchca, CN=switchca CA Certificate
        Validity
            Not Before: Mar 16 20:19:01 2020 GMT
            Not After : Mar 14 20:19:01 2030 GMT
        Subject: C=US, ST=CA, O=Open vSwitch, OU=Open vSwitch Certifier, CN=forwarderB
        Subject Public Key Info:
            Public Key Algorithm: rsaEncryption
                RSA Public-Key: (4096 bit)
                Modulus:
                    00:ca:9a:87:95:be:28:c9:21:df:77:c7:5f:e4:6c:
                    5d:92:86:5f:03:25:00:e5:80:d3:51:7b:df:b0:07:
                    9f:5c:6f:81:b2:86:a3:87:57:e5:da:f9:ab:7d:04:
                    06:78:69:4a:df:4f:b9:69:81:8d:a5:44:c1:46:71:
                    31:ee:1a:b8:c8:24:fc:ee:8f:4b:bb:ce:b5:86:62:
                    6f:96:6c:6b:76:e1:b3:eb:a6:8a:60:99:6b:7c:63:
                    0a:64:fa:c4:6d:31:83:e6:0b:68:24:20:79:05:75:
                    76:b6:3c:76:b7:98:7c:b2:54:94:a8:f5:a1:09:28:
                    7f:82:04:01:2f:65:f0:cf:41:a0:96:8a:3f:77:7c:
                    58:0b:89:95:24:11:45:fb:8a:61:31:cb:99:b0:6e:
                    d1:38:6c:e9:8f:03:d6:42:bd:a6:18:80:f2:03:2a:
                    92:1d:0e:c7:f1:b3:d0:81:b1:8f:79:f7:99:2d:87:
                    b5:d4:f2:02:de:41:7a:f1:68:ee:bd:65:3b:56:29:
                    ca:c2:10:36:c3:af:58:53:6c:fa:0c:98:2f:ca:9f:
                    a2:e5:2c:a6:7b:c4:27:cf:8b:d6:78:e4:0f:a5:bd:
                    6c:8d:61:30:77:99:15:07:d1:c1:21:10:04:4a:14:
                    9e:15:d4:6d:b1:f6:c4:c1:71:a9:8d:e0:56:70:e2:
                    8f:f1:03:20:62:70:21:9a:e5:06:4d:74:e9:f6:75:
                    d9:1f:fb:de:15:0d:bd:07:86:9e:4c:42:61:71:07:
                    45:77:33:21:b6:07:d8:fe:e1:c2:1a:99:51:0f:6f:
                    3f:e3:c9:0b:52:d1:35:89:b1:af:31:a4:8a:6b:69:
                    9e:11:df:78:56:4f:0d:01:96:ef:87:38:45:a5:17:
                    be:a0:a5:c1:91:b2:e7:86:37:13:60:f4:84:eb:71:
                    d3:a2:1d:3e:f1:04:50:83:45:72:aa:c1:3e:72:81:
                    74:ba:19:7d:d7:0c:e6:c9:d5:47:7f:47:a0:d6:56:
                    c7:20:a6:89:44:ac:b7:a7:6b:c6:cd:da:6b:59:ba:
                    30:67:11:14:30:d4:8a:7f:aa:02:87:47:d1:fa:ba:
                    bb:f1:42:8d:e2:44:6b:cc:33:00:d2:de:0a:0b:e3:
                    7f:57:30:b0:5f:59:a9:9b:37:4a:b0:e8:49:a3:bc:
                    6b:0b:ae:b0:c0:cb:37:6c:6f:2d:7a:67:e3:90:a4:
                    65:e8:68:ea:42:91:53:44:13:d1:98:91:dc:a9:8e:
                    ad:7b:8d:8a:fd:23:3d:62:2e:90:0d:18:d3:9d:d2:
                    73:49:35:25:63:fd:4e:a0:9b:7a:a3:df:4f:40:ac:
                    17:86:2f:e0:59:ff:c9:3e:cc:73:87:0c:e2:c9:92:
                    5f:a2:73
                Exponent: 65537 (0x10001)
        X509v3 extensions:
            X509v3 Basic Constraints: 
                CA:FALSE
            X509v3 Subject Alternative Name: 
                DNS:forwarderB
    Signature Algorithm: sha512WithRSAEncryption
         28:89:9a:25:1e:c9:7a:e8:58:99:65:c1:cb:54:17:d7:20:c1:
         ba:94:ca:da:6e:76:e2:be:a2:66:62:9a:4b:bc:33:8a:ee:29:
         9f:30:bc:63:85:e5:43:f2:cb:60:31:89:28:16:33:da:87:75:
         a9:6b:ef:58:a3:1e:3d:7e:c6:b2:8f:c2:d5:53:0f:eb:8c:d3:
         77:76:e2:de:05:a3:31:17:26:e1:3d:5e:39:92:f3:99:3c:f3:
         83:2e:4d:59:08:13:11:c6:8f:b5:3a:1a:20:a6:5a:f0:e7:67:
         12:d7:ce:d6:de:7a:6e:e9:63:fa:cb:cd:39:24:42:d7:b8:75:
         c3:e1:00:52:cb:06:9f:70:73:2e:48:11:72:e6:cb:1f:df:b0:
         58:9c:0b:29:4f:0b:ab:c5:81:91:b8:98:0b:a6:65:6a:e4:6d:
         c8:5e:8f:c1:d3:d0:de:f2:31:02:02:74:14:37:e1:a1:56:fb:
         64:f2:fb:04:48:ef:7c:dd:85:a3:87:ab:5f:ab:7f:43:6c:2a:
         77:37:3d:d8:4a:2f:2c:13:76:bd:d3:35:db:89:3d:4d:89:74:
         e6:5a:98:f1:87:cd:57:46:b4:1d:6c:f3:28:34:a3:13:10:85:
         23:7e:fa:05:72:b8:59:fa:82:3d:54:ed:24:26:ae:2f:a9:24:
         b0:a0:a1:39:07:7f:8f:5e:98:52:f8:4a:62:be:65:28:00:5b:
         a4:39:9d:ce:b9:6c:b8:24:15:ad:03:ea:11:12:47:9e:21:05:
         ec:8e:37:5d:c5:df:f1:91:d5:31:1d:12:b9:cc:46:8a:c7:a3:
         c8:07:4a:a2:17:b6:4c:2e:c5:17:4e:69:4b:c0:4b:2a:fd:4f:
         0e:b1:59:d8:06:fa:2c:bc:f2:07:d2:e2:d6:65:ed:55:ea:59:
         7f:3c:7f:61:fb:a2:ec:b8:b1:4f:c8:5e:26:1d:fe:27:74:b9:
         d4:eb:fc:49:28:76:34:55:fb:00:f6:2d:dc:94:d1:17:d0:44:
         3b:49:33:b2:b9:aa:01:78:ad:66:9e:70:4e:ab:4f:a4:fb:7a:
         ec:52:0d:1b:5b:93:f0:5f:72:9c:9b:da:bc:f0:18:fc:00:83:
         60:c3:b0:0e:23:58:25:6e:df:93:42:0f:0c:77:fa:cf:e7:d0:
         c3:42:44:ae:36:f5:c1:01:05:a7:04:fb:ea:87:ad:ff:56:8a:
         56:f8:f6:8a:33:12:98:82:6e:2c:ac:d1:5a:fe:a7:01:2a:0d:
         cc:9c:b1:2a:dd:69:7f:12:2a:0d:ec:35:72:f4:4b:05:17:9d:
         e2:ef:2a:1c:dd:6c:da:73:a4:35:f4:9c:b2:1c:8b:74:0e:d8:
         9c:12:50:23:6c:bb:0d:64
-----BEGIN CERTIFICATE-----
MIIFbDCCA1SgAwIBAgIBBjANBgkqhkiG9w0BAQ0FADBmMQswCQYDVQQGEwJVUzEL
MAkGA1UECAwCQ0ExFTATBgNVBAoMDE9wZW4gdlN3aXRjaDERMA8GA1UECwwIc3dp
dGNoY2ExIDAeBgNVBAMMF3N3aXRjaGNhIENBIENlcnRpZmljYXRlMB4XDTIwMDMx
NjIwMTkwMVoXDTMwMDMxNDIwMTkwMVowZzELMAkGA1UEBhMCVVMxCzAJBgNVBAgM
AkNBMRUwEwYDVQQKDAxPcGVuIHZTd2l0Y2gxHzAdBgNVBAsMFk9wZW4gdlN3aXRj
aCBDZXJ0aWZpZXIxEzARBgNVBAMMCmZvcndhcmRlckIwggIiMA0GCSqGSIb3DQEB
AQUAA4ICDwAwggIKAoICAQDKmoeVvijJId93x1/kbF2Shl8DJQDlgNNRe9+wB59c
b4GyhqOHV+Xa+at9BAZ4aUrfT7lpgY2lRMFGcTHuGrjIJPzuj0u7zrWGYm+WbGt2
4bPrpopgmWt8Ywpk+sRtMYPmC2gkIHkFdXa2PHa3mHyyVJSo9aEJKH+CBAEvZfDP
QaCWij93fFgLiZUkEUX7imExy5mwbtE4bOmPA9ZCvaYYgPIDKpIdDsfxs9CBsY95
95kth7XU8gLeQXrxaO69ZTtWKcrCEDbDr1hTbPoMmC/Kn6LlLKZ7xCfPi9Z45A+l
vWyNYTB3mRUH0cEhEARKFJ4V1G2x9sTBcamN4FZw4o/xAyBicCGa5QZNdOn2ddkf
+94VDb0Hhp5MQmFxB0V3MyG2B9j+4cIamVEPbz/jyQtS0TWJsa8xpIpraZ4R33hW
Tw0Blu+HOEWlF76gpcGRsueGNxNg9ITrcdOiHT7xBFCDRXKqwT5ygXS6GX3XDObJ
1Ud/R6DWVscgpolErLena8bN2mtZujBnERQw1Ip/qgKHR9H6urvxQo3iRGvMMwDS
3goL439XMLBfWambN0qw6EmjvGsLrrDAyzdsby16Z+OQpGXoaOpCkVNEE9GYkdyp
jq17jYr9Iz1iLpANGNOd0nNJNSVj/U6gm3qj309ArBeGL+BZ/8k+zHOHDOLJkl+i
cwIDAQABoyQwIjAJBgNVHRMEAjAAMBUGA1UdEQQOMAyCCmZvcndhcmRlckIwDQYJ
KoZIhvcNAQENBQADggIBACiJmiUeyXroWJllwctUF9cgwbqUytpuduK+omZimku8
M4ruKZ8wvGOF5UPyy2AxiSgWM9qHdalr71ijHj1+xrKPwtVTD+uM03d24t4FozEX
JuE9XjmS85k884MuTVkIExHGj7U6GiCmWvDnZxLXztbeem7pY/rLzTkkQte4dcPh
AFLLBp9wcy5IEXLmyx/fsFicCylPC6vFgZG4mAumZWrkbchej8HT0N7yMQICdBQ3
4aFW+2Ty+wRI73zdhaOHq1+rf0NsKnc3PdhKLywTdr3TNduJPU2JdOZamPGHzVdG
tB1s8yg0oxMQhSN++gVyuFn6gj1U7SQmri+pJLCgoTkHf49emFL4SmK+ZSgAW6Q5
nc65bLgkFa0D6hESR54hBeyON13F3/GR1TEdErnMRorHo8gHSqIXtkwuxRdOaUvA
Syr9Tw6xWdgG+iy88gfS4tZl7VXqWX88f2H7ouy4sU/IXiYd/id0udTr/EkodjRV
+wD2LdyU0RfQRDtJM7K5qgF4rWaecE6rT6T7euxSDRtbk/Bfcpyb2rzwGPwAg2DD
sA4jWCVu35NCDwx3+s/n0MNCRK429cEBBacE++qHrf9Wilb49oozEpiCbiys0Vr+
pwEqDcycsSrdaX8SKg3sNXL0SwUXneLvKhzdbNpzpDX0nLIci3QO2JwSUCNsuw1k
-----END CERTIFICATE-----
