Certificate:
    Data:
        Version: 3 (0x2)
        Serial Number: 5 (0x5)
        Signature Algorithm: sha512WithRSAEncryption
        Issuer: C=US, ST=CA, O=Open vSwitch, OU=switchca, CN=switchca CA Certificate
        Validity
            Not Before: Mar 16 20:18:55 2020 GMT
            Not After : Mar 14 20:18:55 2030 GMT
        Subject: C=US, ST=CA, O=Open vSwitch, OU=Open vSwitch Certifier, CN=forwarderA
        Subject Public Key Info:
            Public Key Algorithm: rsaEncryption
                RSA Public-Key: (4096 bit)
                Modulus:
                    00:a2:c3:ce:5a:55:51:29:be:85:17:e7:39:c5:a8:
                    90:55:bb:66:c5:13:06:9e:35:ad:a8:a1:eb:55:62:
                    1b:43:be:5d:fb:4d:79:cc:84:9b:d5:d1:ce:a3:35:
                    e4:89:cf:83:76:d2:2e:36:89:1f:4b:68:cf:b0:d4:
                    0c:18:42:ef:1a:11:e2:07:05:cc:c1:bf:15:12:d5:
                    0c:80:d0:46:13:65:d9:66:8c:6a:32:9e:23:ce:f3:
                    5a:1a:ed:16:35:83:83:07:41:20:41:91:98:1f:44:
                    50:d4:fd:54:67:16:21:d1:aa:80:f2:e1:be:7e:a5:
                    e1:71:2e:76:a4:41:17:47:09:01:bd:70:6e:b2:85:
                    d7:8c:09:0e:c9:ff:54:fb:40:4e:1f:7c:85:94:5b:
                    33:11:fa:18:d0:d9:b1:87:bd:24:e1:40:4c:dd:dd:
                    be:9e:02:c6:29:d6:5b:68:98:3f:cd:25:09:8d:7f:
                    08:8a:b4:82:56:c5:c9:25:ef:aa:1a:48:64:13:b1:
                    a2:6f:90:9b:65:0b:60:25:b3:9e:5d:d5:cf:bd:e8:
                    0b:cf:9b:46:a2:ec:b4:c8:02:0a:4d:d4:05:5d:26:
                    cd:6b:d7:24:82:d8:eb:df:62:5b:99:30:b2:72:3e:
                    d6:b7:73:35:1b:3f:2d:da:c0:21:28:30:88:07:58:
                    e7:66:a5:46:a3:d3:3f:c8:4a:dc:e0:c4:2a:a5:1b:
                    d3:5e:0d:7d:13:e1:0c:0e:7f:ca:20:b0:48:b6:15:
                    2b:12:5f:5d:5d:31:56:c9:88:d1:4f:e2:12:45:29:
                    db:0b:1c:cd:17:65:6a:1b:8d:df:70:1a:d1:50:a9:
                    35:fe:7d:17:11:69:f8:23:7d:79:28:67:00:98:38:
                    f4:04:53:3d:03:c6:8b:4e:c6:ce:69:8a:c3:ed:6c:
                    e6:3d:87:b3:69:68:25:3b:a5:10:db:78:15:ee:f3:
                    96:51:ef:ef:83:89:ba:ae:b5:5d:86:8c:83:ac:dc:
                    cc:51:60:1e:2f:5c:cd:73:bb:23:96:ac:fe:6b:c9:
                    01:e3:01:dc:f0:a9:5e:c8:ca:fc:d7:64:a4:ae:8d:
                    75:26:0e:2b:0e:73:3c:f7:86:52:69:75:fa:8d:d6:
                    69:76:95:8c:64:e6:0b:68:8f:f5:3e:86:15:ab:4c:
                    0b:79:b3:bf:7f:d8:61:88:de:67:df:11:9e:c0:c6:
                    25:99:bf:d3:67:fd:b9:53:9b:ba:61:5a:4f:30:dc:
                    02:8c:3c:6d:ce:9e:ec:a4:4e:e7:80:49:74:bf:6d:
                    d7:83:7d:a0:4b:91:df:e4:ec:85:44:a8:42:70:3e:
                    b7:81:a5:91:06:22:29:3b:9d:4d:d3:b9:bd:84:61:
                    e6:b7:15
                Exponent: 65537 (0x10001)
        X509v3 extensions:
            X509v3 Basic Constraints: 
                CA:FALSE
            X509v3 Subject Alternative Name: 
                DNS:forwarderA
    Signature Algorithm: sha512WithRSAEncryption
         31:2d:bc:af:e7:81:37:00:e1:fa:40:7d:73:eb:28:f5:02:fe:
         eb:c8:9b:2e:44:b7:35:a7:84:47:23:a0:80:d2:cc:ac:79:71:
         45:96:67:d0:6b:27:95:72:d5:95:ab:7a:c8:7b:2c:f0:5c:58:
         1a:4e:6b:17:9e:9d:96:5a:8d:07:5f:c2:35:e7:b3:6b:4d:86:
         88:16:34:14:2a:d5:68:fe:2d:6a:b3:30:80:13:1d:a4:d8:84:
         6b:43:41:3c:81:cb:0d:7e:2a:38:29:e2:7a:09:83:45:6e:6c:
         ea:28:11:96:ad:6c:41:a5:c3:d2:04:1f:d8:3c:90:58:cd:ea:
         a9:f0:41:36:bf:ee:a0:14:36:31:9a:46:ff:bb:cf:e0:68:17:
         9f:46:7f:1b:ff:43:e0:d8:38:1c:ed:80:cd:62:48:9f:e6:4d:
         5a:48:6b:cb:41:95:d2:d6:e3:33:89:42:c0:e3:4d:8a:8f:df:
         30:90:3d:d0:02:2e:db:d0:f8:55:b3:d0:34:71:a7:2c:2d:d6:
         f7:52:00:a2:19:bb:77:e2:52:f6:54:c0:f0:9b:d7:fc:89:49:
         eb:2c:42:1c:4e:a7:20:7e:4c:a2:7d:81:0d:1a:5a:3a:f0:77:
         28:45:5b:0d:3a:c4:fa:11:46:85:21:bb:83:3e:53:be:c5:9f:
         e1:fa:b5:84:f2:a3:1b:6d:cc:de:fb:82:ab:31:48:79:3b:cc:
         32:b1:24:32:b3:d6:4b:b6:cf:99:9f:1e:c9:7d:64:3d:8d:c4:
         97:aa:85:e6:e9:16:3c:4e:e2:94:ad:1a:b4:30:25:3e:f4:6b:
         8c:4f:54:da:29:5d:c9:2a:e8:1b:8a:1f:f8:df:7b:8a:58:fa:
         a0:36:15:f5:95:00:1f:5f:bd:c0:90:b9:4e:af:6a:d0:be:ac:
         46:95:15:a9:f3:29:75:9e:6b:08:eb:e1:fc:6e:1c:30:04:6d:
         65:e0:b2:fd:d6:e1:d5:85:72:eb:dd:92:c6:b3:cb:51:a9:10:
         70:91:01:f3:d5:30:bb:be:55:95:a3:8d:9a:cb:4f:e5:fa:bb:
         73:53:fc:60:d8:d7:ea:7a:5f:cb:c8:f1:9b:d2:5f:a0:af:50:
         20:fc:20:66:a8:34:27:d8:6e:ad:80:d2:01:9a:1f:30:1e:d7:
         ff:bd:cc:21:28:08:2b:c8:7b:29:da:f1:c0:4b:82:3e:65:e5:
         53:20:1b:26:ac:9e:78:5e:fa:3b:ce:05:bd:f2:c9:e0:33:e5:
         ab:0d:0f:42:06:c1:ba:f3:4d:e3:3e:10:cc:a6:32:62:86:35:
         10:d9:30:55:0f:39:1f:f8:01:52:15:63:58:b2:bb:55:67:80:
         9c:7d:72:01:15:f3:5a:5e
-----BEGIN CERTIFICATE-----
MIIFbDCCA1SgAwIBAgIBBTANBgkqhkiG9w0BAQ0FADBmMQswCQYDVQQGEwJVUzEL
MAkGA1UECAwCQ0ExFTATBgNVBAoMDE9wZW4gdlN3aXRjaDERMA8GA1UECwwIc3dp
dGNoY2ExIDAeBgNVBAMMF3N3aXRjaGNhIENBIENlcnRpZmljYXRlMB4XDTIwMDMx
NjIwMTg1NVoXDTMwMDMxNDIwMTg1NVowZzELMAkGA1UEBhMCVVMxCzAJBgNVBAgM
AkNBMRUwEwYDVQQKDAxPcGVuIHZTd2l0Y2gxHzAdBgNVBAsMFk9wZW4gdlN3aXRj
aCBDZXJ0aWZpZXIxEzARBgNVBAMMCmZvcndhcmRlckEwggIiMA0GCSqGSIb3DQEB
AQUAA4ICDwAwggIKAoICAQCiw85aVVEpvoUX5znFqJBVu2bFEwaeNa2ooetVYhtD
vl37TXnMhJvV0c6jNeSJz4N20i42iR9LaM+w1AwYQu8aEeIHBczBvxUS1QyA0EYT
ZdlmjGoyniPO81oa7RY1g4MHQSBBkZgfRFDU/VRnFiHRqoDy4b5+peFxLnakQRdH
CQG9cG6yhdeMCQ7J/1T7QE4ffIWUWzMR+hjQ2bGHvSThQEzd3b6eAsYp1ltomD/N
JQmNfwiKtIJWxckl76oaSGQTsaJvkJtlC2Als55d1c+96AvPm0ai7LTIAgpN1AVd
Js1r1ySC2OvfYluZMLJyPta3czUbPy3awCEoMIgHWOdmpUaj0z/IStzgxCqlG9Ne
DX0T4QwOf8ogsEi2FSsSX11dMVbJiNFP4hJFKdsLHM0XZWobjd9wGtFQqTX+fRcR
afgjfXkoZwCYOPQEUz0DxotOxs5pisPtbOY9h7NpaCU7pRDbeBXu85ZR7++Dibqu
tV2GjIOs3MxRYB4vXM1zuyOWrP5ryQHjAdzwqV7IyvzXZKSujXUmDisOczz3hlJp
dfqN1ml2lYxk5gtoj/U+hhWrTAt5s79/2GGI3mffEZ7AxiWZv9Nn/blTm7phWk8w
3AKMPG3OnuykTueASXS/bdeDfaBLkd/k7IVEqEJwPreBpZEGIik7nU3Tub2EYea3
FQIDAQABoyQwIjAJBgNVHRMEAjAAMBUGA1UdEQQOMAyCCmZvcndhcmRlckEwDQYJ
KoZIhvcNAQENBQADggIBADEtvK/ngTcA4fpAfXPrKPUC/uvImy5EtzWnhEcjoIDS
zKx5cUWWZ9BrJ5Vy1ZWresh7LPBcWBpOaxeenZZajQdfwjXns2tNhogWNBQq1Wj+
LWqzMIATHaTYhGtDQTyByw1+Kjgp4noJg0VubOooEZatbEGlw9IEH9g8kFjN6qnw
QTa/7qAUNjGaRv+7z+BoF59Gfxv/Q+DYOBztgM1iSJ/mTVpIa8tBldLW4zOJQsDj
TYqP3zCQPdACLtvQ+FWz0DRxpywt1vdSAKIZu3fiUvZUwPCb1/yJSessQhxOpyB+
TKJ9gQ0aWjrwdyhFWw06xPoRRoUhu4M+U77Fn+H6tYTyoxttzN77gqsxSHk7zDKx
JDKz1ku2z5mfHsl9ZD2NxJeqhebpFjxO4pStGrQwJT70a4xPVNopXckq6BuKH/jf
e4pY+qA2FfWVAB9fvcCQuU6vatC+rEaVFanzKXWeawjr4fxuHDAEbWXgsv3W4dWF
cuvdksazy1GpEHCRAfPVMLu+VZWjjZrLT+X6u3NT/GDY1+p6X8vI8ZvSX6CvUCD8
IGaoNCfYbq2A0gGaHzAe1/+9zCEoCCvIeyna8cBLgj5l5VMgGyasnnhe+jvOBb3y
yeAz5asND0IGwbrzTeM+EMymMmKGNRDZMFUPOR/4AVIVY1iyu1VngJx9cgEV81pe
-----END CERTIFICATE-----
