Certificate:
    Data:
        Version: 3 (0x2)
        Serial Number: 1 (0x1)
        Signature Algorithm: sha512WithRSAEncryption
        Issuer: C=US, ST=CA, O=Open vSwitch, OU=switchca, CN=switchca CA Certificate
        Validity
            Not Before: Mar 16 20:14:38 2020 GMT
            Not After : Mar 14 20:14:38 2030 GMT
        Subject: C=US, ST=CA, O=Open vSwitch, OU=switchca, CN=switchca CA Certificate
        Subject Public Key Info:
            Public Key Algorithm: rsaEncryption
                RSA Public-Key: (4096 bit)
                Modulus:
                    00:c1:d0:b6:f7:9c:28:02:b0:25:e8:33:27:b3:46:
                    2b:84:48:b0:12:55:80:33:a7:1c:83:77:22:ee:a5:
                    49:4d:94:c8:75:13:00:80:85:1b:96:db:dd:1d:f7:
                    3a:0b:46:d9:7e:5d:3a:4d:c5:56:15:55:15:c0:6a:
                    de:9b:47:e3:ec:83:73:c9:f2:c4:b8:3c:bb:bc:c8:
                    83:a2:a7:d1:69:ac:6d:b1:59:dd:80:5a:f8:d6:23:
                    05:62:5c:53:19:46:fb:f4:35:dc:d9:11:8b:69:51:
                    73:6c:b8:1f:84:a7:05:db:86:f5:21:37:43:ea:3f:
                    62:9a:bb:e4:13:5b:da:7f:9c:ad:ad:2e:a2:44:56:
                    40:f4:d1:ed:6f:8c:2c:e0:d5:f1:f7:c3:80:38:17:
                    cf:53:0c:47:44:c9:54:77:b2:e6:80:db:79:38:74:
                    31:d5:76:f3:80:46:a8:0a:bd:3b:20:96:c8:2d:6c:
                    8e:7e:37:b7:2d:e4:d0:98:ed:9c:17:82:e9:e7:a4:
                    33:75:95:c9:cb:64:98:05:ee:fe:c5:6f:c8:ae:c1:
                    e1:45:05:bf:24:0f:4a:9b:37:bb:a3:99:bc:26:9d:
                    e0:6d:ff:0a:e7:83:c0:85:fd:7e:5b:62:5f:95:5d:
                    bd:53:08:3f:06:47:4d:65:71:18:fb:cf:6d:75:6c:
                    bd:86:5a:c7:1e:d2:a3:42:ae:24:b3:d2:52:2c:47:
                    ca:b5:bd:0a:7e:9b:42:1a:e6:69:a3:60:b1:97:f9:
                    6b:b8:3a:01:54:19:16:30:ab:69:f4:76:7e:b3:92:
                    5c:96:40:0a:e2:9d:0c:3b:6f:02:08:aa:56:03:6a:
                    56:25:21:7b:cd:00:c2:4e:59:7f:f4:f5:8a:23:7d:
                    4d:a3:80:a3:43:65:f4:d1:be:90:b2:3f:12:9a:dd:
                    9f:94:fd:0a:f4:bb:08:5c:1b:65:96:ec:e5:db:52:
                    55:da:c2:f9:6c:02:3b:34:bc:38:f1:f4:24:80:4c:
                    24:d4:59:49:85:e5:c7:90:dc:ab:c0:13:e3:93:bb:
                    db:df:ff:2a:9d:ff:3c:3a:0f:b2:b2:41:1b:77:84:
                    cc:fb:99:f5:b4:8b:22:0e:a8:de:51:20:ef:d6:a1:
                    75:3c:cc:a9:c8:e5:89:00:13:e9:75:04:21:93:fa:
                    9d:29:d5:16:80:1c:f7:98:dd:73:a5:d8:8f:f5:fd:
                    ec:49:a7:59:d7:6d:e6:56:9d:0e:a8:c1:c9:a7:e6:
                    e4:24:e5:5e:29:7c:a3:89:ef:f3:67:29:51:3b:06:
                    7b:7b:ec:a6:84:ab:49:28:b2:41:47:81:d8:61:04:
                    09:96:4e:81:1e:bf:1f:cc:cd:d6:27:4d:da:6b:82:
                    3f:78:dd
                Exponent: 65537 (0x10001)
        X509v3 extensions:
            X509v3 Basic Constraints: 
                CA:TRUE
    Signature Algorithm: sha512WithRSAEncryption
         53:46:e6:f7:25:90:66:b0:7b:48:b2:43:dc:f5:06:28:12:75:
         e0:52:9e:e8:25:f7:6c:e9:0a:db:13:ff:a4:99:09:da:95:6b:
         1f:82:9b:87:f3:83:ae:7b:97:6f:b8:a2:a7:56:a1:68:86:4f:
         b4:97:a0:ff:a8:e6:9d:7b:b6:ce:80:a4:c0:fb:b5:4c:4f:e2:
         bf:1a:21:a8:0a:04:48:84:aa:24:3c:6f:27:64:da:af:62:a1:
         0e:80:64:3e:eb:4c:1d:c1:5d:4c:f3:6a:53:c0:b1:b3:01:f1:
         15:75:99:61:3f:bb:d4:c1:a6:da:19:52:e8:2f:07:95:b9:e2:
         5d:d1:b7:ef:b8:8a:0e:a7:38:17:cd:4f:36:61:5e:f4:20:4a:
         da:84:18:c1:fd:e2:a0:9f:8d:eb:25:2f:c1:1f:20:56:99:dd:
         9f:75:6d:b0:e3:41:dc:a6:5a:cf:82:f0:ef:33:fb:ec:0d:17:
         6e:85:20:fe:0c:1c:c9:07:e0:56:71:90:7e:d6:8b:38:3b:7b:
         e2:8c:c3:88:57:49:01:77:79:30:a1:97:6f:7a:82:bd:71:a5:
         ed:0f:1f:39:b3:a8:1d:f4:39:38:cc:e5:f4:09:11:a8:52:58:
         9e:18:4e:8d:ad:45:12:e4:03:93:70:e3:80:3b:55:b6:d3:92:
         05:8a:f6:20:a7:13:83:10:b2:5a:63:85:bc:e5:65:63:1f:fb:
         54:71:0c:cf:0a:71:d7:07:e4:2c:51:9c:9a:6f:ab:15:70:b1:
         0e:08:3e:b4:08:38:2c:2a:e5:6b:7e:6e:90:3b:e6:b4:f3:6c:
         5d:84:e5:d4:62:b4:44:d1:0d:26:c4:a8:a7:28:9a:f7:92:55:
         f0:9f:e2:13:9b:a3:d8:92:c0:cf:27:0f:a3:da:2f:44:4f:25:
         d8:74:d7:25:67:1a:5e:5c:5f:81:4f:2e:ee:dc:99:98:64:1f:
         8d:d3:0a:66:bf:55:e4:c8:16:86:52:44:f8:ff:56:84:5d:a6:
         b9:24:2a:41:ff:b2:47:20:a7:36:99:33:f1:97:0f:1c:e8:d3:
         0e:96:54:6d:99:bd:f7:4f:de:b2:16:5a:ec:82:da:d8:51:10:
         38:b3:b7:ea:ff:a5:34:a3:28:24:52:c7:8b:94:79:4c:44:68:
         44:cb:b1:e1:52:cd:00:b9:07:e8:d9:ee:50:7a:f3:f7:8e:17:
         9c:63:46:6e:91:de:92:45:7e:60:d4:08:a6:76:7d:12:6c:61:
         2c:0a:26:c8:16:4a:c9:45:e7:e9:d0:2e:18:4c:15:40:4d:57:
         c0:69:5a:57:f5:91:c0:df:dc:38:09:04:15:07:73:08:ea:83:
         7b:3e:cb:67:a4:c5:bb:f4
-----BEGIN CERTIFICATE-----
MIIFVzCCAz+gAwIBAgIBATANBgkqhkiG9w0BAQ0FADBmMQswCQYDVQQGEwJVUzEL
MAkGA1UECAwCQ0ExFTATBgNVBAoMDE9wZW4gdlN3aXRjaDERMA8GA1UECwwIc3dp
dGNoY2ExIDAeBgNVBAMMF3N3aXRjaGNhIENBIENlcnRpZmljYXRlMB4XDTIwMDMx
NjIwMTQzOFoXDTMwMDMxNDIwMTQzOFowZjELMAkGA1UEBhMCVVMxCzAJBgNVBAgM
AkNBMRUwEwYDVQQKDAxPcGVuIHZTd2l0Y2gxETAPBgNVBAsMCHN3aXRjaGNhMSAw
HgYDVQQDDBdzd2l0Y2hjYSBDQSBDZXJ0aWZpY2F0ZTCCAiIwDQYJKoZIhvcNAQEB
BQADggIPADCCAgoCggIBAMHQtvecKAKwJegzJ7NGK4RIsBJVgDOnHIN3Iu6lSU2U
yHUTAICFG5bb3R33OgtG2X5dOk3FVhVVFcBq3ptH4+yDc8nyxLg8u7zIg6Kn0Wms
bbFZ3YBa+NYjBWJcUxlG+/Q13NkRi2lRc2y4H4SnBduG9SE3Q+o/Ypq75BNb2n+c
ra0uokRWQPTR7W+MLODV8ffDgDgXz1MMR0TJVHey5oDbeTh0MdV284BGqAq9OyCW
yC1sjn43ty3k0JjtnBeC6eekM3WVyctkmAXu/sVvyK7B4UUFvyQPSps3u6OZvCad
4G3/CueDwIX9fltiX5VdvVMIPwZHTWVxGPvPbXVsvYZaxx7So0KuJLPSUixHyrW9
Cn6bQhrmaaNgsZf5a7g6AVQZFjCrafR2frOSXJZACuKdDDtvAgiqVgNqViUhe80A
wk5Zf/T1iiN9TaOAo0Nl9NG+kLI/Eprdn5T9CvS7CFwbZZbs5dtSVdrC+WwCOzS8
OPH0JIBMJNRZSYXlx5Dcq8AT45O729//Kp3/PDoPsrJBG3eEzPuZ9bSLIg6o3lEg
79ahdTzMqcjliQAT6XUEIZP6nSnVFoAc95jdc6XYj/X97EmnWddt5ladDqjByafm
5CTlXil8o4nv82cpUTsGe3vspoSrSSiyQUeB2GEECZZOgR6/H8zN1idN2muCP3jd
AgMBAAGjEDAOMAwGA1UdEwQFMAMBAf8wDQYJKoZIhvcNAQENBQADggIBAFNG5vcl
kGawe0iyQ9z1BigSdeBSnugl92zpCtsT/6SZCdqVax+Cm4fzg657l2+4oqdWoWiG
T7SXoP+o5p17ts6ApMD7tUxP4r8aIagKBEiEqiQ8bydk2q9ioQ6AZD7rTB3BXUzz
alPAsbMB8RV1mWE/u9TBptoZUugvB5W54l3Rt++4ig6nOBfNTzZhXvQgStqEGMH9
4qCfjeslL8EfIFaZ3Z91bbDjQdymWs+C8O8z++wNF26FIP4MHMkH4FZxkH7Wizg7
e+KMw4hXSQF3eTChl296gr1xpe0PHzmzqB30OTjM5fQJEahSWJ4YTo2tRRLkA5Nw
44A7VbbTkgWK9iCnE4MQslpjhbzlZWMf+1RxDM8KcdcH5CxRnJpvqxVwsQ4IPrQI
OCwq5Wt+bpA75rTzbF2E5dRitETRDSbEqKcomveSVfCf4hObo9iSwM8nD6PaL0RP
Jdh01yVnGl5cX4FPLu7cmZhkH43TCma/VeTIFoZSRPj/VoRdprkkKkH/skcgpzaZ
M/GXDxzo0w6WVG2ZvfdP3rIWWuyC2thREDizt+r/pTSjKCRSx4uUeUxEaETLseFS
zQC5B+jZ7lB68/eOF5xjRm6R3pJFfmDUCKZ2fRJsYSwKJsgWSslF5+nQLhhMFUBN
V8BpWlf1kcDf3DgJBBUHcwjqg3s+y2ekxbv0
-----END CERTIFICATE-----
