Certificate:
    Data:
        Version: 3 (0x2)
        Serial Number: 4 (0x4)
        Signature Algorithm: sha512WithRSAEncryption
        Issuer: C=US, ST=CA, O=Open vSwitch, OU=switchca, CN=switchca CA Certificate
        Validity
            Not Before: Jan  5 08:28:04 2020 GMT
            Not After : Jan  2 08:28:04 2030 GMT
        Subject: C=US, ST=CA, O=Open vSwitch, OU=Open vSwitch Certifier, CN=sw2
        Subject Public Key Info:
            Public Key Algorithm: rsaEncryption
                RSA Public-Key: (4096 bit)
                Modulus:
                    00:c1:2c:82:56:c5:53:b7:82:8a:dc:ce:d1:8c:ff:
                    84:86:1e:1b:ef:76:e0:46:81:7f:b2:24:46:54:4c:
                    0d:48:5a:5f:6a:71:3a:c4:93:ea:4f:09:8d:d8:95:
                    95:88:e7:8a:62:66:02:ca:7e:02:29:8a:5f:8a:2a:
                    9b:27:96:a9:e9:e7:83:0e:a4:70:ca:6e:43:7e:13:
                    cd:78:75:c9:56:ce:ad:a3:89:0d:8c:c4:98:46:29:
                    2c:65:e0:70:d7:c6:f3:20:e4:7d:45:a5:d6:c0:36:
                    24:47:41:27:65:2a:a6:3d:63:28:cd:93:f2:2c:a0:
                    71:e6:24:97:36:79:15:f4:e0:67:d1:54:1b:63:b7:
                    1a:a8:7c:47:35:bc:bb:19:8e:00:e7:1a:1a:7e:ad:
                    96:f6:07:af:86:88:89:2b:a9:72:16:1f:3c:5a:ce:
                    b1:84:ba:e6:14:ab:5c:52:cd:c5:26:73:ad:db:c5:
                    e5:02:f9:bf:6e:11:dc:43:68:90:bf:4c:4d:26:8a:
                    64:2f:35:51:ec:28:31:1e:b4:11:78:41:85:1a:b9:
                    f9:df:a6:84:de:42:a0:82:40:20:12:d8:02:1a:82:
                    a9:45:6c:3b:1b:d6:fd:c0:97:ad:e1:5a:c1:51:14:
                    df:4c:66:79:17:9c:98:52:55:ed:b6:15:44:9a:f6:
                    d9:71:69:da:58:9a:e0:3a:f4:ea:44:8e:b4:30:1a:
                    f0:4a:df:35:20:e3:19:68:a3:5a:f3:0a:0e:3d:48:
                    e7:52:29:76:58:08:3b:f6:2b:45:4e:45:f3:b5:07:
                    dc:3e:d6:f4:37:fe:b1:ae:41:54:82:7b:71:2a:65:
                    95:1c:d3:1c:59:5f:b7:3b:17:ca:6d:d5:48:e5:6e:
                    e9:21:70:c8:98:b3:2c:d9:f3:c0:4f:f3:a2:eb:16:
                    f9:fb:a2:ab:8e:f8:de:b5:36:3d:20:b2:c3:50:b6:
                    22:bb:e9:31:a1:a1:14:e7:a9:d2:8a:45:9c:4f:7b:
                    f9:15:b6:c7:41:13:f3:82:2d:b9:6c:ff:78:0a:be:
                    55:3c:19:e0:d9:0d:3f:54:76:40:68:73:32:24:55:
                    9c:21:b6:d4:4a:76:3a:4a:8d:29:01:fe:68:1f:11:
                    77:96:23:f3:67:a3:4f:42:0b:6a:ca:5f:59:23:ad:
                    e4:fc:9b:51:91:e8:e0:35:bd:d0:87:b4:17:89:d9:
                    c4:ae:3a:c8:1e:39:56:c2:cf:4b:7b:1a:43:23:4a:
                    07:09:5a:0c:7d:ae:76:48:99:78:dd:5a:be:4c:c8:
                    7d:c0:f6:c8:06:00:ec:b2:64:5c:cb:9b:46:6b:e9:
                    84:ee:0c:9e:ff:82:87:25:db:c6:67:58:13:79:3d:
                    66:52:63
                Exponent: 65537 (0x10001)
        X509v3 extensions:
            X509v3 Basic Constraints: 
                CA:FALSE
            X509v3 Subject Alternative Name: 
                DNS:sw2
    Signature Algorithm: sha512WithRSAEncryption
         e3:a8:ae:e7:b3:57:fe:b2:c0:1c:bb:b8:17:b5:30:83:ad:80:
         05:cf:63:f5:ad:a2:c5:6c:c1:2b:ed:47:e2:24:62:94:7c:f2:
         30:4d:45:8a:55:f7:06:3b:15:95:38:00:fe:4a:28:cc:aa:4d:
         a9:58:78:4a:30:02:e3:be:b0:65:fc:e2:26:1e:e5:dc:d8:18:
         03:4b:52:e3:ad:64:88:74:fe:b0:6b:0a:65:ba:74:b4:47:90:
         02:c4:ea:3b:fa:f1:69:08:90:8c:da:96:db:eb:d1:68:2f:19:
         5c:d3:d0:83:6e:2f:b1:36:f4:5b:20:06:d0:2e:db:0b:a8:5c:
         f3:06:1b:40:31:82:19:15:13:0d:b6:6c:33:15:c4:d3:4c:ee:
         0c:f4:af:2d:99:9e:b7:70:81:8b:b7:6f:d8:f8:a5:5b:eb:1e:
         5c:40:22:c4:35:fa:6c:de:86:26:69:33:30:65:6b:7a:05:57:
         2a:4e:ce:69:07:97:bb:e4:8f:f5:60:f2:58:04:b4:6c:5b:0f:
         21:e6:62:d6:df:53:fc:87:f4:f3:bb:f9:00:e6:e9:73:82:9f:
         e9:07:e3:30:5b:8d:07:00:df:ba:c1:b0:2a:e3:12:0b:5f:71:
         a2:05:e5:8f:ae:0b:83:b3:8e:1a:27:3d:0a:04:2f:d9:b6:4f:
         a0:c0:ec:34:ce:8a:b7:27:65:1e:01:59:4e:e3:a5:d9:79:f1:
         7a:da:74:e9:3b:44:71:9c:13:b5:30:5b:ff:cc:70:e4:86:fe:
         b6:82:67:d5:a0:de:37:c9:e3:ae:a9:9b:c0:91:d9:5f:6e:5f:
         fe:07:ed:2e:37:9d:de:02:7c:87:ec:10:6a:ff:52:e9:49:37:
         f9:c8:cf:96:14:18:b9:fe:e6:c4:70:a7:b1:c9:30:a5:77:56:
         d9:92:ff:ce:2e:8c:14:fc:06:8a:1c:f5:0b:cb:3a:f2:13:79:
         45:b0:00:d0:28:d6:b7:90:fa:8d:1f:af:55:d1:41:62:1b:64:
         46:31:c4:84:18:b1:4b:9d:8e:8a:d4:3c:f4:f9:53:97:bf:c5:
         3f:7d:31:8d:b5:97:bb:2b:ae:05:b3:47:ce:b0:54:57:05:12:
         4a:0a:08:42:ec:bf:49:99:46:40:65:08:c5:9f:2f:eb:e7:a5:
         12:d9:02:19:a1:5d:b8:9d:31:8d:60:6a:b8:13:7f:1f:60:27:
         0b:9d:17:74:15:a0:16:09:87:38:e3:05:dc:d0:04:a0:01:6b:
         59:c2:4f:57:17:fb:2a:f2:00:7a:36:e2:c1:82:40:0d:2f:fb:
         54:5e:1a:1d:dc:8b:58:10:6c:38:aa:71:68:44:62:62:12:c5:
         1b:2f:0c:9e:a5:6f:47:40
-----BEGIN CERTIFICATE-----
MIIFXjCCA0agAwIBAgIBBDANBgkqhkiG9w0BAQ0FADBmMQswCQYDVQQGEwJVUzEL
MAkGA1UECAwCQ0ExFTATBgNVBAoMDE9wZW4gdlN3aXRjaDERMA8GA1UECwwIc3dp
dGNoY2ExIDAeBgNVBAMMF3N3aXRjaGNhIENBIENlcnRpZmljYXRlMB4XDTIwMDEw
NTA4MjgwNFoXDTMwMDEwMjA4MjgwNFowYDELMAkGA1UEBhMCVVMxCzAJBgNVBAgM
AkNBMRUwEwYDVQQKDAxPcGVuIHZTd2l0Y2gxHzAdBgNVBAsMFk9wZW4gdlN3aXRj
aCBDZXJ0aWZpZXIxDDAKBgNVBAMMA3N3MjCCAiIwDQYJKoZIhvcNAQEBBQADggIP
ADCCAgoCggIBAMEsglbFU7eCitzO0Yz/hIYeG+924EaBf7IkRlRMDUhaX2pxOsST
6k8JjdiVlYjnimJmAsp+AimKX4oqmyeWqenngw6kcMpuQ34TzXh1yVbOraOJDYzE
mEYpLGXgcNfG8yDkfUWl1sA2JEdBJ2Uqpj1jKM2T8iygceYklzZ5FfTgZ9FUG2O3
Gqh8RzW8uxmOAOcaGn6tlvYHr4aIiSupchYfPFrOsYS65hSrXFLNxSZzrdvF5QL5
v24R3ENokL9MTSaKZC81UewoMR60EXhBhRq5+d+mhN5CoIJAIBLYAhqCqUVsOxvW
/cCXreFawVEU30xmeRecmFJV7bYVRJr22XFp2lia4Dr06kSOtDAa8ErfNSDjGWij
WvMKDj1I51IpdlgIO/YrRU5F87UH3D7W9Df+sa5BVIJ7cSpllRzTHFlftzsXym3V
SOVu6SFwyJizLNnzwE/zousW+fuiq4743rU2PSCyw1C2IrvpMaGhFOep0opFnE97
+RW2x0ET84ItuWz/eAq+VTwZ4NkNP1R2QGhzMiRVnCG21Ep2OkqNKQH+aB8Rd5Yj
82ejT0ILaspfWSOt5PybUZHo4DW90Ie0F4nZxK46yB45VsLPS3saQyNKBwlaDH2u
dkiZeN1avkzIfcD2yAYA7LJkXMubRmvphO4Mnv+ChyXbxmdYE3k9ZlJjAgMBAAGj
HTAbMAkGA1UdEwQCMAAwDgYDVR0RBAcwBYIDc3cyMA0GCSqGSIb3DQEBDQUAA4IC
AQDjqK7ns1f+ssAcu7gXtTCDrYAFz2P1raLFbMEr7UfiJGKUfPIwTUWKVfcGOxWV
OAD+SijMqk2pWHhKMALjvrBl/OImHuXc2BgDS1LjrWSIdP6wawplunS0R5ACxOo7
+vFpCJCM2pbb69FoLxlc09CDbi+xNvRbIAbQLtsLqFzzBhtAMYIZFRMNtmwzFcTT
TO4M9K8tmZ63cIGLt2/Y+KVb6x5cQCLENfps3oYmaTMwZWt6BVcqTs5pB5e75I/1
YPJYBLRsWw8h5mLW31P8h/Tzu/kA5ulzgp/pB+MwW40HAN+6wbAq4xILX3GiBeWP
rguDs44aJz0KBC/Ztk+gwOw0zoq3J2UeAVlO46XZefF62nTpO0RxnBO1MFv/zHDk
hv62gmfVoN43yeOuqZvAkdlfbl/+B+0uN53eAnyH7BBq/1LpSTf5yM+WFBi5/ubE
cKexyTCld1bZkv/OLowU/AaKHPULyzryE3lFsADQKNa3kPqNH69V0UFiG2RGMcSE
GLFLnY6K1Dz0+VOXv8U/fTGNtZe7K64Fs0fOsFRXBRJKCghC7L9JmUZAZQjFny/r
56US2QIZoV24nTGNYGq4E38fYCcLnRd0FaAWCYc44wXc0ASgAWtZwk9XF/sq8gB6
NuLBgkANL/tUXhod3ItYEGw4qnFoRGJiEsUbLwyepW9HQA==
-----END CERTIFICATE-----
