Certificate Request:
    Data:
        Version: 1 (0x0)
        Subject: C = US, ST = CA, L = Palo Alto, O = Open vSwitch, OU = Open vSwitch Certifier, CN = sw2
        Subject Public Key Info:
            Public Key Algorithm: rsaEncryption
                RSA Public-Key: (4096 bit)
                Modulus:
                    00:c1:2c:82:56:c5:53:b7:82:8a:dc:ce:d1:8c:ff:
                    84:86:1e:1b:ef:76:e0:46:81:7f:b2:24:46:54:4c:
                    0d:48:5a:5f:6a:71:3a:c4:93:ea:4f:09:8d:d8:95:
                    95:88:e7:8a:62:66:02:ca:7e:02:29:8a:5f:8a:2a:
                    9b:27:96:a9:e9:e7:83:0e:a4:70:ca:6e:43:7e:13:
                    cd:78:75:c9:56:ce:ad:a3:89:0d:8c:c4:98:46:29:
                    2c:65:e0:70:d7:c6:f3:20:e4:7d:45:a5:d6:c0:36:
                    24:47:41:27:65:2a:a6:3d:63:28:cd:93:f2:2c:a0:
                    71:e6:24:97:36:79:15:f4:e0:67:d1:54:1b:63:b7:
                    1a:a8:7c:47:35:bc:bb:19:8e:00:e7:1a:1a:7e:ad:
                    96:f6:07:af:86:88:89:2b:a9:72:16:1f:3c:5a:ce:
                    b1:84:ba:e6:14:ab:5c:52:cd:c5:26:73:ad:db:c5:
                    e5:02:f9:bf:6e:11:dc:43:68:90:bf:4c:4d:26:8a:
                    64:2f:35:51:ec:28:31:1e:b4:11:78:41:85:1a:b9:
                    f9:df:a6:84:de:42:a0:82:40:20:12:d8:02:1a:82:
                    a9:45:6c:3b:1b:d6:fd:c0:97:ad:e1:5a:c1:51:14:
                    df:4c:66:79:17:9c:98:52:55:ed:b6:15:44:9a:f6:
                    d9:71:69:da:58:9a:e0:3a:f4:ea:44:8e:b4:30:1a:
                    f0:4a:df:35:20:e3:19:68:a3:5a:f3:0a:0e:3d:48:
                    e7:52:29:76:58:08:3b:f6:2b:45:4e:45:f3:b5:07:
                    dc:3e:d6:f4:37:fe:b1:ae:41:54:82:7b:71:2a:65:
                    95:1c:d3:1c:59:5f:b7:3b:17:ca:6d:d5:48:e5:6e:
                    e9:21:70:c8:98:b3:2c:d9:f3:c0:4f:f3:a2:eb:16:
                    f9:fb:a2:ab:8e:f8:de:b5:36:3d:20:b2:c3:50:b6:
                    22:bb:e9:31:a1:a1:14:e7:a9:d2:8a:45:9c:4f:7b:
                    f9:15:b6:c7:41:13:f3:82:2d:b9:6c:ff:78:0a:be:
                    55:3c:19:e0:d9:0d:3f:54:76:40:68:73:32:24:55:
                    9c:21:b6:d4:4a:76:3a:4a:8d:29:01:fe:68:1f:11:
                    77:96:23:f3:67:a3:4f:42:0b:6a:ca:5f:59:23:ad:
                    e4:fc:9b:51:91:e8:e0:35:bd:d0:87:b4:17:89:d9:
                    c4:ae:3a:c8:1e:39:56:c2:cf:4b:7b:1a:43:23:4a:
                    07:09:5a:0c:7d:ae:76:48:99:78:dd:5a:be:4c:c8:
                    7d:c0:f6:c8:06:00:ec:b2:64:5c:cb:9b:46:6b:e9:
                    84:ee:0c:9e:ff:82:87:25:db:c6:67:58:13:79:3d:
                    66:52:63
                Exponent: 65537 (0x10001)
        Attributes:
        Requested Extensions:
            X509v3 Subject Alternative Name: 
                DNS:sw2
    Signature Algorithm: sha256WithRSAEncryption
         43:73:35:09:67:dc:9a:6d:0a:d4:83:fc:03:df:97:30:5b:c6:
         f6:df:6c:de:05:a0:c7:a2:69:0d:f6:8d:56:f5:35:5a:40:5f:
         48:1c:3e:8c:e9:16:c4:f9:04:8f:cf:c5:82:52:6b:be:8c:eb:
         dc:ba:5d:20:c9:d4:80:21:24:ac:c4:0f:a4:7e:a0:9d:18:d7:
         34:7c:fc:d6:9e:4b:cf:e3:27:66:f7:21:5e:2d:10:2c:bd:ed:
         d1:0d:0c:00:a5:f6:f8:9c:5f:f7:36:ae:57:4f:46:17:01:f2:
         7f:69:d5:53:2a:51:5e:f9:c3:a6:13:7d:a5:24:66:6c:42:91:
         ce:02:95:27:3c:71:2e:e3:39:8d:74:dd:ce:a2:dc:62:77:4f:
         7a:61:47:43:a6:f5:a0:f2:93:59:30:d5:37:cc:0d:be:88:0f:
         fc:1c:fc:8e:95:c9:63:55:79:d9:e3:bb:56:d3:82:fc:f2:42:
         dc:06:71:04:7f:73:5c:a8:8e:5d:41:f5:46:73:bf:a9:a4:d3:
         14:37:91:ad:4c:ad:5a:9e:f1:5c:1b:8c:4d:b1:cf:22:35:95:
         e3:18:20:46:b3:2a:1f:4b:6b:42:91:8f:3a:21:59:b2:f1:15:
         61:a4:9c:82:28:ba:f0:a0:d2:82:7a:bb:fd:a1:7c:b1:00:96:
         63:a9:fb:72:c9:4f:53:bb:0b:0a:db:d0:79:b5:e1:ea:d0:ed:
         28:9a:30:b9:f8:78:64:cc:b0:d8:0d:ca:a3:9c:86:21:dc:9b:
         dc:2b:1e:e6:d2:99:d2:87:09:4b:15:9d:83:5f:fc:bc:68:18:
         fc:68:73:ba:9d:72:fa:6d:f5:25:ec:81:a8:59:ef:53:cd:aa:
         c8:19:fe:0e:e0:ef:94:70:f7:50:eb:54:3f:20:e2:e2:e8:9b:
         2c:3f:52:e1:c8:8b:8d:e1:f4:0f:0b:6b:2c:5e:64:41:b7:f7:
         78:12:a9:c3:23:26:ba:cb:c0:f1:78:98:0b:c6:8e:c8:07:34:
         57:70:4b:af:b5:54:cc:81:fb:76:c2:ac:a2:da:0b:26:d3:aa:
         9f:fa:54:32:78:a4:b1:95:ed:3b:bc:c8:d6:77:ca:71:46:d5:
         30:b7:c4:2d:e6:05:8b:fe:a1:89:cf:e0:01:cd:f0:3d:e5:16:
         19:1b:44:05:05:7d:be:79:3f:97:cd:7a:c1:71:86:29:05:5e:
         bc:bd:ee:56:f8:55:21:e1:e6:37:30:9d:ee:7c:9c:60:55:23:
         38:a5:b3:e5:24:23:32:00:55:58:98:b8:ab:c4:70:b8:f4:46:
         a9:96:bf:cd:c7:59:64:47:66:15:13:f3:54:5e:6f:b7:99:b7:
         5d:2c:58:07:e3:12:14:8d
-----BEGIN CERTIFICATE REQUEST-----
MIIE2jCCAsICAQAwdDELMAkGA1UEBhMCVVMxCzAJBgNVBAgMAkNBMRIwEAYDVQQH
DAlQYWxvIEFsdG8xFTATBgNVBAoMDE9wZW4gdlN3aXRjaDEfMB0GA1UECwwWT3Bl
biB2U3dpdGNoIENlcnRpZmllcjEMMAoGA1UEAwwDc3cyMIICIjANBgkqhkiG9w0B
AQEFAAOCAg8AMIICCgKCAgEAwSyCVsVTt4KK3M7RjP+Ehh4b73bgRoF/siRGVEwN
SFpfanE6xJPqTwmN2JWViOeKYmYCyn4CKYpfiiqbJ5ap6eeDDqRwym5DfhPNeHXJ
Vs6to4kNjMSYRiksZeBw18bzIOR9RaXWwDYkR0EnZSqmPWMozZPyLKBx5iSXNnkV
9OBn0VQbY7caqHxHNby7GY4A5xoafq2W9gevhoiJK6lyFh88Ws6xhLrmFKtcUs3F
JnOt28XlAvm/bhHcQ2iQv0xNJopkLzVR7CgxHrQReEGFGrn536aE3kKggkAgEtgC
GoKpRWw7G9b9wJet4VrBURTfTGZ5F5yYUlXtthVEmvbZcWnaWJrgOvTqRI60MBrw
St81IOMZaKNa8woOPUjnUil2WAg79itFTkXztQfcPtb0N/6xrkFUgntxKmWVHNMc
WV+3OxfKbdVI5W7pIXDImLMs2fPAT/Oi6xb5+6KrjvjetTY9ILLDULYiu+kxoaEU
56nSikWcT3v5FbbHQRPzgi25bP94Cr5VPBng2Q0/VHZAaHMyJFWcIbbUSnY6So0p
Af5oHxF3liPzZ6NPQgtqyl9ZI63k/JtRkejgNb3Qh7QXidnErjrIHjlWws9LexpD
I0oHCVoMfa52SJl43Vq+TMh9wPbIBgDssmRcy5tGa+mE7gye/4KHJdvGZ1gTeT1m
UmMCAwEAAaAhMB8GCSqGSIb3DQEJDjESMBAwDgYDVR0RBAcwBYIDc3cyMA0GCSqG
SIb3DQEBCwUAA4ICAQBDczUJZ9yabQrUg/wD35cwW8b232zeBaDHomkN9o1W9TVa
QF9IHD6M6RbE+QSPz8WCUmu+jOvcul0gydSAISSsxA+kfqCdGNc0fPzWnkvP4ydm
9yFeLRAsve3RDQwApfb4nF/3Nq5XT0YXAfJ/adVTKlFe+cOmE32lJGZsQpHOApUn
PHEu4zmNdN3Ootxid096YUdDpvWg8pNZMNU3zA2+iA/8HPyOlcljVXnZ47tW04L8
8kLcBnEEf3NcqI5dQfVGc7+ppNMUN5GtTK1anvFcG4xNsc8iNZXjGCBGsyofS2tC
kY86IVmy8RVhpJyCKLrwoNKCerv9oXyxAJZjqftyyU9TuwsK29B5teHq0O0omjC5
+HhkzLDYDcqjnIYh3JvcKx7m0pnShwlLFZ2DX/y8aBj8aHO6nXL6bfUl7IGoWe9T
zarIGf4O4O+UcPdQ61Q/IOLi6JssP1LhyIuN4fQPC2ssXmRBt/d4EqnDIya6y8Dx
eJgLxo7IBzRXcEuvtVTMgft2wqyi2gsm06qf+lQyeKSxle07vMjWd8pxRtUwt8Qt
5gWL/qGJz+ABzfA95RYZG0QFBX2+eT+XzXrBcYYpBV68ve5W+FUh4eY3MJ3ufJxg
VSM4pbPlJCMyAFVYmLirxHC49Eaplr/Nx1lkR2YVE/NUXm+3mbddLFgH4xIUjQ==
-----END CERTIFICATE REQUEST-----
